
hello:     file format elf64-littleaarch64


Disassembly of section .init:

0000000000400280 <_init>:
  400280:	a9bf7bfd 	stp	x29, x30, [sp, #-16]!
  400284:	910003fd 	mov	x29, sp
  400288:	940000e3 	bl	400614 <call_weak_fn>
  40028c:	a8c17bfd 	ldp	x29, x30, [sp], #16
  400290:	d65f03c0 	ret

Disassembly of section .plt:

00000000004002a0 <.plt>:
  4002a0:	d0000450 	adrp	x16, 48a000 <_GLOBAL_OFFSET_TABLE_+0x498>
  4002a4:	f9400211 	ldr	x17, [x16]
  4002a8:	91000210 	add	x16, x16, #0x0
  4002ac:	d61f0220 	br	x17
  4002b0:	d0000450 	adrp	x16, 48a000 <_GLOBAL_OFFSET_TABLE_+0x498>
  4002b4:	f9400611 	ldr	x17, [x16, #8]
  4002b8:	91002210 	add	x16, x16, #0x8
  4002bc:	d61f0220 	br	x17
  4002c0:	d0000450 	adrp	x16, 48a000 <_GLOBAL_OFFSET_TABLE_+0x498>
  4002c4:	f9400a11 	ldr	x17, [x16, #16]
  4002c8:	91004210 	add	x16, x16, #0x10
  4002cc:	d61f0220 	br	x17
  4002d0:	d0000450 	adrp	x16, 48a000 <_GLOBAL_OFFSET_TABLE_+0x498>
  4002d4:	f9400e11 	ldr	x17, [x16, #24]
  4002d8:	91006210 	add	x16, x16, #0x18
  4002dc:	d61f0220 	br	x17
  4002e0:	d0000450 	adrp	x16, 48a000 <_GLOBAL_OFFSET_TABLE_+0x498>
  4002e4:	f9401211 	ldr	x17, [x16, #32]
  4002e8:	91008210 	add	x16, x16, #0x20
  4002ec:	d61f0220 	br	x17
  4002f0:	d0000450 	adrp	x16, 48a000 <_GLOBAL_OFFSET_TABLE_+0x498>
  4002f4:	f9401611 	ldr	x17, [x16, #40]
  4002f8:	9100a210 	add	x16, x16, #0x28
  4002fc:	d61f0220 	br	x17
  400300:	d0000450 	adrp	x16, 48a000 <_GLOBAL_OFFSET_TABLE_+0x498>
  400304:	f9401a11 	ldr	x17, [x16, #48]
  400308:	9100c210 	add	x16, x16, #0x30
  40030c:	d61f0220 	br	x17

Disassembly of section .text:

0000000000400340 <abort>:
  400340:	a9ab7bfd 	stp	x29, x30, [sp, #-336]!
  400344:	b0000440 	adrp	x0, 489000 <_nl_C_LC_IDENTIFICATION+0xa8>
  400348:	910003fd 	mov	x29, sp
  40034c:	a90153f3 	stp	x19, x20, [sp, #16]
  400350:	90000473 	adrp	x19, 48c000 <object.0+0x28>
  400354:	d53bd054 	mrs	x20, tpidr_el0
  400358:	a9025bf5 	stp	x21, x22, [sp, #32]
  40035c:	91268275 	add	x21, x19, #0x9a0
  400360:	d11c0294 	sub	x20, x20, #0x700
  400364:	f945dc00 	ldr	x0, [x0, #3000]
  400368:	f94006a1 	ldr	x1, [x21, #8]
  40036c:	f9400002 	ldr	x2, [x0]
  400370:	f900a7e2 	str	x2, [sp, #328]
  400374:	d2800002 	mov	x2, #0x0                   	// #0
  400378:	eb14003f 	cmp	x1, x20
  40037c:	54000140 	b.eq	4003a4 <abort+0x64>  // b.none
  400380:	aa1503e2 	mov	x2, x21
  400384:	52800021 	mov	w1, #0x1                   	// #1
  400388:	52800000 	mov	w0, #0x0                   	// #0
  40038c:	940132f5 	bl	44cf60 <__aarch64_cas4_acq>
  400390:	34000060 	cbz	w0, 40039c <abort+0x5c>
  400394:	aa1503e0 	mov	x0, x21
  400398:	94004ed2 	bl	413ee0 <__lll_lock_wait_private>
  40039c:	91268260 	add	x0, x19, #0x9a0
  4003a0:	f9000414 	str	x20, [x0, #8]
  4003a4:	91268263 	add	x3, x19, #0x9a0
  4003a8:	b9400460 	ldr	w0, [x3, #4]
  4003ac:	b9401061 	ldr	w1, [x3, #16]
  4003b0:	11000400 	add	w0, w0, #0x1
  4003b4:	b9000460 	str	w0, [x3, #4]
  4003b8:	350001a1 	cbnz	w1, 4003ec <abort+0xac>
  4003bc:	52800036 	mov	w22, #0x1                   	// #1
  4003c0:	d2800f02 	mov	x2, #0x78                  	// #120
  4003c4:	9100e3e0 	add	x0, sp, #0x38
  4003c8:	b9001076 	str	w22, [x3, #16]
  4003cc:	97ffffc1 	bl	4002d0 <.plt+0x30>
  4003d0:	9100c3f5 	add	x21, sp, #0x30
  4003d4:	d2800403 	mov	x3, #0x20                  	// #32
  4003d8:	2a1603e0 	mov	w0, w22
  4003dc:	aa1503e1 	mov	x1, x21
  4003e0:	d2800002 	mov	x2, #0x0                   	// #0
  4003e4:	f9001be3 	str	x3, [sp, #48]
  4003e8:	9400145e 	bl	405560 <__sigprocmask>
  4003ec:	91268275 	add	x21, x19, #0x9a0
  4003f0:	b94012a0 	ldr	w0, [x21, #16]
  4003f4:	7100041f 	cmp	w0, #0x1
  4003f8:	540004a1 	b.ne	40048c <abort+0x14c>  // b.any
  4003fc:	b94006a0 	ldr	w0, [x21, #4]
  400400:	b90012bf 	str	wzr, [x21, #16]
  400404:	51000400 	sub	w0, w0, #0x1
  400408:	b90006a0 	str	w0, [x21, #4]
  40040c:	35000180 	cbnz	w0, 40043c <abort+0xfc>
  400410:	f90006bf 	str	xzr, [x21, #8]
  400414:	aa1503e1 	mov	x1, x21
  400418:	94013332 	bl	44d0e0 <__aarch64_swp4_rel>
  40041c:	7100041f 	cmp	w0, #0x1
  400420:	540000ed 	b.le	40043c <abort+0xfc>
  400424:	aa1503e0 	mov	x0, x21
  400428:	d2801021 	mov	x1, #0x81                  	// #129
  40042c:	d2800022 	mov	x2, #0x1                   	// #1
  400430:	d2800003 	mov	x3, #0x0                   	// #0
  400434:	d2800c48 	mov	x8, #0x62                  	// #98
  400438:	d4000001 	svc	#0x0
  40043c:	91268275 	add	x21, x19, #0x9a0
  400440:	528000c0 	mov	w0, #0x6                   	// #6
  400444:	940013fb 	bl	405430 <raise>
  400448:	f94006a0 	ldr	x0, [x21, #8]
  40044c:	eb14001f 	cmp	x0, x20
  400450:	54000140 	b.eq	400478 <abort+0x138>  // b.none
  400454:	aa1503e2 	mov	x2, x21
  400458:	52800021 	mov	w1, #0x1                   	// #1
  40045c:	52800000 	mov	w0, #0x0                   	// #0
  400460:	940132c0 	bl	44cf60 <__aarch64_cas4_acq>
  400464:	34000060 	cbz	w0, 400470 <abort+0x130>
  400468:	aa1503e0 	mov	x0, x21
  40046c:	94004e9d 	bl	413ee0 <__lll_lock_wait_private>
  400470:	91268260 	add	x0, x19, #0x9a0
  400474:	f9000414 	str	x20, [x0, #8]
  400478:	91268261 	add	x1, x19, #0x9a0
  40047c:	b9400420 	ldr	w0, [x1, #4]
  400480:	11000400 	add	w0, w0, #0x1
  400484:	b9000420 	str	w0, [x1, #4]
  400488:	14000003 	b	400494 <abort+0x154>
  40048c:	7100081f 	cmp	w0, #0x2
  400490:	54000221 	b.ne	4004d4 <abort+0x194>  // b.any
  400494:	91268263 	add	x3, x19, #0x9a0
  400498:	52800064 	mov	w4, #0x3                   	// #3
  40049c:	9102c3f4 	add	x20, sp, #0xb0
  4004a0:	d2801302 	mov	x2, #0x98                  	// #152
  4004a4:	52800001 	mov	w1, #0x0                   	// #0
  4004a8:	aa1403e0 	mov	x0, x20
  4004ac:	b9001064 	str	w4, [x3, #16]
  4004b0:	97ffff88 	bl	4002d0 <.plt+0x30>
  4004b4:	d2801002 	mov	x2, #0x80                  	// #128
  4004b8:	52801fe1 	mov	w1, #0xff                  	// #255
  4004bc:	9102e3e0 	add	x0, sp, #0xb8
  4004c0:	97ffff84 	bl	4002d0 <.plt+0x30>
  4004c4:	aa1403e1 	mov	x1, x20
  4004c8:	d2800002 	mov	x2, #0x0                   	// #0
  4004cc:	528000c0 	mov	w0, #0x6                   	// #6
  4004d0:	9400b8e8 	bl	42e870 <__sigaction>
  4004d4:	91268261 	add	x1, x19, #0x9a0
  4004d8:	b9401020 	ldr	w0, [x1, #16]
  4004dc:	71000c1f 	cmp	w0, #0x3
  4004e0:	540000a1 	b.ne	4004f4 <abort+0x1b4>  // b.any
  4004e4:	52800082 	mov	w2, #0x4                   	// #4
  4004e8:	528000c0 	mov	w0, #0x6                   	// #6
  4004ec:	b9001022 	str	w2, [x1, #16]
  4004f0:	940013d0 	bl	405430 <raise>
  4004f4:	91268260 	add	x0, x19, #0x9a0
  4004f8:	b9401001 	ldr	w1, [x0, #16]
  4004fc:	7100103f 	cmp	w1, #0x4
  400500:	54000081 	b.ne	400510 <abort+0x1d0>  // b.any
  400504:	528000a1 	mov	w1, #0x5                   	// #5
  400508:	b9001001 	str	w1, [x0, #16]
  40050c:	d4207d00 	brk	#0x3e8
  400510:	91268273 	add	x19, x19, #0x9a0
  400514:	b9401260 	ldr	w0, [x19, #16]
  400518:	7100141f 	cmp	w0, #0x5
  40051c:	540000a1 	b.ne	400530 <abort+0x1f0>  // b.any
  400520:	528000c1 	mov	w1, #0x6                   	// #6
  400524:	52800fe0 	mov	w0, #0x7f                  	// #127
  400528:	b9001261 	str	w1, [x19, #16]
  40052c:	94007795 	bl	41e380 <_exit>
  400530:	d4207d00 	brk	#0x3e8
  400534:	17ffffff 	b	400530 <abort+0x1f0>

0000000000400538 <_dl_start>:
  400538:	a9bf7bfd 	stp	x29, x30, [sp, #-16]!
  40053c:	910003fd 	mov	x29, sp
  400540:	97ffff80 	bl	400340 <abort>
  400544:	d503201f 	nop
  400548:	d503201f 	nop
  40054c:	d503201f 	nop

0000000000400550 <fini>:
  400550:	a9be7bfd 	stp	x29, x30, [sp, #-32]!
  400554:	910003fd 	mov	x29, sp
  400558:	a90153f3 	stp	x19, x20, [sp, #16]
  40055c:	b0000473 	adrp	x19, 48d000 <known_derivations>
  400560:	91094273 	add	x19, x19, #0x250
  400564:	f9401274 	ldr	x20, [x19, #32]
  400568:	b40000d4 	cbz	x20, 400580 <fini+0x30>
  40056c:	f0000321 	adrp	x1, 467000 <primes.0+0x1a0>
  400570:	aa1403e0 	mov	x0, x20
  400574:	9102c021 	add	x1, x1, #0xb0
  400578:	94006752 	bl	41a2c0 <strcmp>
  40057c:	35000080 	cbnz	w0, 40058c <fini+0x3c>
  400580:	a94153f3 	ldp	x19, x20, [sp, #16]
  400584:	a8c27bfd 	ldp	x29, x30, [sp], #32
  400588:	d65f03c0 	ret
  40058c:	91002273 	add	x19, x19, #0x8
  400590:	aa1403e0 	mov	x0, x20
  400594:	940061af 	bl	418c50 <__free>
  400598:	f9000e7f 	str	xzr, [x19, #24]
  40059c:	17fffff9 	b	400580 <fini+0x30>

00000000004005a0 <init_have_lse_atomics>:
  4005a0:	a9bf7bfd 	stp	x29, x30, [sp, #-16]!
  4005a4:	d2800200 	mov	x0, #0x10                  	// #16
  4005a8:	910003fd 	mov	x29, sp
  4005ac:	94014719 	bl	452210 <__getauxval>
  4005b0:	53082000 	ubfx	w0, w0, #8, #1
  4005b4:	b0000461 	adrp	x1, 48d000 <known_derivations>
  4005b8:	a8c17bfd 	ldp	x29, x30, [sp], #16
  4005bc:	390d7020 	strb	w0, [x1, #860]
  4005c0:	d65f03c0 	ret
  4005c4:	d503201f 	nop
  4005c8:	d503201f 	nop
  4005cc:	d503201f 	nop

00000000004005d0 <_start>:
  4005d0:	d280001d 	mov	x29, #0x0                   	// #0
  4005d4:	d280001e 	mov	x30, #0x0                   	// #0
  4005d8:	aa0003e5 	mov	x5, x0
  4005dc:	f94003e1 	ldr	x1, [sp]
  4005e0:	910023e2 	add	x2, sp, #0x8
  4005e4:	910003e6 	mov	x6, sp
  4005e8:	90000000 	adrp	x0, 400000 <__ehdr_start>
  4005ec:	91182000 	add	x0, x0, #0x608
  4005f0:	90000003 	adrp	x3, 400000 <__ehdr_start>
  4005f4:	91380063 	add	x3, x3, #0xe00
  4005f8:	90000004 	adrp	x4, 400000 <__ehdr_start>
  4005fc:	913b0084 	add	x4, x4, #0xec0
  400600:	94000054 	bl	400750 <__libc_start_main>
  400604:	97ffff4f 	bl	400340 <abort>

0000000000400608 <__wrap_main>:
  400608:	14000047 	b	400724 <main>
  40060c:	d503201f 	nop

0000000000400610 <_dl_relocate_static_pie>:
  400610:	d65f03c0 	ret

0000000000400614 <call_weak_fn>:
  400614:	b0000440 	adrp	x0, 489000 <_nl_C_LC_IDENTIFICATION+0xa8>
  400618:	f947e800 	ldr	x0, [x0, #4048]
  40061c:	b4000040 	cbz	x0, 400624 <call_weak_fn+0x10>
  400620:	d503201f 	nop
  400624:	d65f03c0 	ret
  400628:	d503201f 	nop
  40062c:	d503201f 	nop

0000000000400630 <deregister_tm_clones>:
  400630:	f0000440 	adrp	x0, 48b000 <_dl_main_map+0x18>
  400634:	91266000 	add	x0, x0, #0x998
  400638:	f0000441 	adrp	x1, 48b000 <_dl_main_map+0x18>
  40063c:	91266021 	add	x1, x1, #0x998
  400640:	eb00003f 	cmp	x1, x0
  400644:	540000c0 	b.eq	40065c <deregister_tm_clones+0x2c>  // b.none
  400648:	d0000281 	adrp	x1, 452000 <__gcc_personality_v0+0x100>
  40064c:	f9478c21 	ldr	x1, [x1, #3864]
  400650:	b4000061 	cbz	x1, 40065c <deregister_tm_clones+0x2c>
  400654:	aa0103f0 	mov	x16, x1
  400658:	d61f0200 	br	x16
  40065c:	d65f03c0 	ret

0000000000400660 <register_tm_clones>:
  400660:	f0000440 	adrp	x0, 48b000 <_dl_main_map+0x18>
  400664:	91266000 	add	x0, x0, #0x998
  400668:	f0000441 	adrp	x1, 48b000 <_dl_main_map+0x18>
  40066c:	91266021 	add	x1, x1, #0x998
  400670:	cb000021 	sub	x1, x1, x0
  400674:	d37ffc22 	lsr	x2, x1, #63
  400678:	8b810c41 	add	x1, x2, x1, asr #3
  40067c:	9341fc21 	asr	x1, x1, #1
  400680:	b40000c1 	cbz	x1, 400698 <register_tm_clones+0x38>
  400684:	d0000282 	adrp	x2, 452000 <__gcc_personality_v0+0x100>
  400688:	f9479042 	ldr	x2, [x2, #3872]
  40068c:	b4000062 	cbz	x2, 400698 <register_tm_clones+0x38>
  400690:	aa0203f0 	mov	x16, x2
  400694:	d61f0200 	br	x16
  400698:	d65f03c0 	ret
  40069c:	d503201f 	nop

00000000004006a0 <__do_global_dtors_aux>:
  4006a0:	a9be7bfd 	stp	x29, x30, [sp, #-32]!
  4006a4:	910003fd 	mov	x29, sp
  4006a8:	f9000bf3 	str	x19, [sp, #16]
  4006ac:	f0000453 	adrp	x19, 48b000 <_dl_main_map+0x18>
  4006b0:	397f4260 	ldrb	w0, [x19, #4048]
  4006b4:	35000140 	cbnz	w0, 4006dc <__do_global_dtors_aux+0x3c>
  4006b8:	97ffffde 	bl	400630 <deregister_tm_clones>
  4006bc:	d0000280 	adrp	x0, 452000 <__gcc_personality_v0+0x100>
  4006c0:	f9479400 	ldr	x0, [x0, #3880]
  4006c4:	b4000080 	cbz	x0, 4006d4 <__do_global_dtors_aux+0x34>
  4006c8:	90000360 	adrp	x0, 46c000 <__PRETTY_FUNCTION__.1+0x110>
  4006cc:	9117c000 	add	x0, x0, #0x5f0
  4006d0:	94014501 	bl	451ad4 <__deregister_frame_info>
  4006d4:	52800020 	mov	w0, #0x1                   	// #1
  4006d8:	393f4260 	strb	w0, [x19, #4048]
  4006dc:	f9400bf3 	ldr	x19, [sp, #16]
  4006e0:	a8c27bfd 	ldp	x29, x30, [sp], #32
  4006e4:	d65f03c0 	ret
  4006e8:	d503201f 	nop
  4006ec:	d503201f 	nop

00000000004006f0 <frame_dummy>:
  4006f0:	d0000280 	adrp	x0, 452000 <__gcc_personality_v0+0x100>
  4006f4:	f9479800 	ldr	x0, [x0, #3888]
  4006f8:	b4000140 	cbz	x0, 400720 <frame_dummy+0x30>
  4006fc:	a9bf7bfd 	stp	x29, x30, [sp, #-16]!
  400700:	f0000441 	adrp	x1, 48b000 <_dl_main_map+0x18>
  400704:	90000360 	adrp	x0, 46c000 <__PRETTY_FUNCTION__.1+0x110>
  400708:	910003fd 	mov	x29, sp
  40070c:	913f6021 	add	x1, x1, #0xfd8
  400710:	9117c000 	add	x0, x0, #0x5f0
  400714:	940143e7 	bl	4516b0 <__register_frame_info>
  400718:	a8c17bfd 	ldp	x29, x30, [sp], #16
  40071c:	17ffffd1 	b	400660 <register_tm_clones>
  400720:	17ffffd0 	b	400660 <register_tm_clones>

0000000000400724 <main>:
  400724:	a9bf7bfd 	stp	x29, x30, [sp, #-16]!
  400728:	910003fd 	mov	x29, sp
  40072c:	d0000280 	adrp	x0, 452000 <__gcc_personality_v0+0x100>
  400730:	913ce000 	add	x0, x0, #0xf38
  400734:	9400185f 	bl	4068b0 <_IO_printf>
  400738:	52800000 	mov	w0, #0x0                   	// #0
  40073c:	a8c17bfd 	ldp	x29, x30, [sp], #16
  400740:	d65f03c0 	ret
  400744:	d503201f 	nop
  400748:	d503201f 	nop
  40074c:	d503201f 	nop

0000000000400750 <__libc_start_main>:
  400750:	a9a87bfd 	stp	x29, x30, [sp, #-384]!
  400754:	b0000447 	adrp	x7, 489000 <_nl_C_LC_IDENTIFICATION+0xa8>
  400758:	910003fd 	mov	x29, sp
  40075c:	f94750e7 	ldr	x7, [x7, #3744]
  400760:	a90153f3 	stp	x19, x20, [sp, #16]
  400764:	aa0303f4 	mov	x20, x3
  400768:	a9025bf5 	stp	x21, x22, [sp, #32]
  40076c:	aa0603f3 	mov	x19, x6
  400770:	aa0403f5 	mov	x21, x4
  400774:	a90363f7 	stp	x23, x24, [sp, #48]
  400778:	aa0503f6 	mov	x22, x5
  40077c:	a9046bf9 	stp	x25, x26, [sp, #64]
  400780:	a90573fb 	stp	x27, x28, [sp, #80]
  400784:	b9006fe1 	str	w1, [sp, #108]
  400788:	a90703e2 	stp	x2, x0, [sp, #112]
  40078c:	52800000 	mov	w0, #0x0                   	// #0
  400790:	b4000087 	cbz	x7, 4007a0 <__libc_start_main+0x50>
  400794:	b94000e0 	ldr	w0, [x7]
  400798:	7100001f 	cmp	w0, #0x0
  40079c:	1a9f17e0 	cset	w0, eq  // eq = none
  4007a0:	f0000441 	adrp	x1, 48b000 <_dl_main_map+0x18>
  4007a4:	b9056820 	str	w0, [x1, #1384]
  4007a8:	97ffff9a 	bl	400610 <_dl_relocate_static_pie>
  4007ac:	f9403be1 	ldr	x1, [sp, #112]
  4007b0:	b0000447 	adrp	x7, 489000 <_nl_C_LC_IDENTIFICATION+0xa8>
  4007b4:	b9406fe0 	ldr	w0, [sp, #108]
  4007b8:	8b20cc20 	add	x0, x1, w0, sxtw #3
  4007bc:	f9467ce1 	ldr	x1, [x7, #3320]
  4007c0:	91002000 	add	x0, x0, #0x8
  4007c4:	f945d8e7 	ldr	x7, [x7, #2992]
  4007c8:	f9000020 	str	x0, [x1]
  4007cc:	f90000f3 	str	x19, [x7]
  4007d0:	f8408401 	ldr	x1, [x0], #8
  4007d4:	b5ffffe1 	cbnz	x1, 4007d0 <__libc_start_main+0x80>
  4007d8:	940085e2 	bl	421f60 <_dl_aux_init>
  4007dc:	b0000447 	adrp	x7, 489000 <_nl_C_LC_IDENTIFICATION+0xa8>
  4007e0:	f94710e1 	ldr	x1, [x7, #3616]
  4007e4:	f945c0e0 	ldr	x0, [x7, #2944]
  4007e8:	f9400022 	ldr	x2, [x1]
  4007ec:	f100005f 	cmp	x2, #0x0
  4007f0:	fa400804 	ccmp	x0, #0x0, #0x4, eq  // eq = none
  4007f4:	54000821 	b.ne	4008f8 <__libc_start_main+0x1a8>  // b.any
  4007f8:	9400895a 	bl	422d60 <__libc_init_secure>
  4007fc:	b0000447 	adrp	x7, 489000 <_nl_C_LC_IDENTIFICATION+0xa8>
  400800:	f9467ce7 	ldr	x7, [x7, #3320]
  400804:	f94000e0 	ldr	x0, [x7]
  400808:	9400846e 	bl	4219c0 <__tunables_init>
  40080c:	910223e1 	add	x1, sp, #0x88
  400810:	d2800002 	mov	x2, #0x0                   	// #0
  400814:	52800080 	mov	w0, #0x4                   	// #4
  400818:	940085b2 	bl	421ee0 <__tunable_get_val>
  40081c:	f94047f3 	ldr	x19, [sp, #136]
  400820:	b4000193 	cbz	x19, 400850 <__libc_start_main+0x100>
  400824:	d0000438 	adrp	x24, 486000 <__FRAME_END__+0xf468>
  400828:	913fa318 	add	x24, x24, #0xfe8
  40082c:	d2800017 	mov	x23, #0x0                   	// #0
  400830:	d37ceee1 	lsl	x1, x23, #4
  400834:	aa1303e0 	mov	x0, x19
  400838:	f8786821 	ldr	x1, [x1, x24]
  40083c:	940066a1 	bl	41a2c0 <strcmp>
  400840:	34000800 	cbz	w0, 400940 <__libc_start_main+0x1f0>
  400844:	910006f7 	add	x23, x23, #0x1
  400848:	f10026ff 	cmp	x23, #0x9
  40084c:	54ffff21 	b.ne	400830 <__libc_start_main+0xe0>  // b.any
  400850:	b0000447 	adrp	x7, 489000 <_nl_C_LC_IDENTIFICATION+0xa8>
  400854:	f947ace7 	ldr	x7, [x7, #3928]
  400858:	f94000e1 	ldr	x1, [x7]
  40085c:	92750020 	and	x0, x1, #0x800
  400860:	36580041 	tbz	w1, #11, 400868 <__libc_start_main+0x118>
  400864:	d5380000 	mrs	x0, midr_el1
  400868:	b0000447 	adrp	x7, 489000 <_nl_C_LC_IDENTIFICATION+0xa8>
  40086c:	f946c8e7 	ldr	x7, [x7, #3472]
  400870:	f90000e0 	str	x0, [x7]
  400874:	d53b00e0 	mrs	x0, dczid_el0
  400878:	372000a0 	tbnz	w0, #4, 40088c <__libc_start_main+0x13c>
  40087c:	12000c00 	and	w0, w0, #0xf
  400880:	52800081 	mov	w1, #0x4                   	// #4
  400884:	1ac02020 	lsl	w0, w1, w0
  400888:	b90008e0 	str	w0, [x7, #8]
  40088c:	b0000447 	adrp	x7, 489000 <_nl_C_LC_IDENTIFICATION+0xa8>
  400890:	d2800319 	mov	x25, #0x18                  	// #24
  400894:	aa0703f7 	mov	x23, x7
  400898:	f94660f3 	ldr	x19, [x7, #3264]
  40089c:	f94620f8 	ldr	x24, [x7, #3136]
  4008a0:	f947acfc 	ldr	x28, [x7, #3928]
  4008a4:	f94700fb 	ldr	x27, [x7, #3584]
  4008a8:	1400000b 	b	4008d4 <__libc_start_main+0x184>
  4008ac:	f9400a62 	ldr	x2, [x19, #16]
  4008b0:	91006273 	add	x19, x19, #0x18
  4008b4:	f9400361 	ldr	x1, [x27]
  4008b8:	f90053e1 	str	x1, [sp, #160]
  4008bc:	f9400380 	ldr	x0, [x28]
  4008c0:	a90903f9 	stp	x25, x0, [sp, #144]
  4008c4:	910243e1 	add	x1, sp, #0x90
  4008c8:	b2420000 	orr	x0, x0, #0x4000000000000000
  4008cc:	d63f0040 	blr	x2
  4008d0:	f9000340 	str	x0, [x26]
  4008d4:	eb18027f 	cmp	x19, x24
  4008d8:	540003e2 	b.cs	400954 <__libc_start_main+0x204>  // b.hs, b.nlast
  4008dc:	b9400a60 	ldr	w0, [x19, #8]
  4008e0:	f940027a 	ldr	x26, [x19]
  4008e4:	f110201f 	cmp	x0, #0x408
  4008e8:	54fffe20 	b.eq	4008ac <__libc_start_main+0x15c>  // b.none
  4008ec:	d0000280 	adrp	x0, 452000 <__gcc_personality_v0+0x100>
  4008f0:	913e6000 	add	x0, x0, #0xf98
  4008f4:	94003934 	bl	40edc4 <__libc_fatal>
  4008f8:	79406c02 	ldrh	w2, [x0, #54]
  4008fc:	7100e05f 	cmp	w2, #0x38
  400900:	54000101 	b.ne	400920 <__libc_start_main+0x1d0>  // b.any
  400904:	f94790e7 	ldr	x7, [x7, #3872]
  400908:	f9401002 	ldr	x2, [x0, #32]
  40090c:	79407003 	ldrh	w3, [x0, #56]
  400910:	8b000040 	add	x0, x2, x0
  400914:	f90000e3 	str	x3, [x7]
  400918:	f9000020 	str	x0, [x1]
  40091c:	17ffffb7 	b	4007f8 <__libc_start_main+0xa8>
  400920:	f0000283 	adrp	x3, 453000 <_IO_stdin_used+0xf0>
  400924:	d0000281 	adrp	x1, 452000 <__gcc_personality_v0+0x100>
  400928:	d0000280 	adrp	x0, 452000 <__gcc_personality_v0+0x100>
  40092c:	91002063 	add	x3, x3, #0x8
  400930:	913d4021 	add	x1, x1, #0xf50
  400934:	913da000 	add	x0, x0, #0xf68
  400938:	52801682 	mov	w2, #0xb4                  	// #180
  40093c:	940001cd 	bl	401070 <__assert_fail>
  400940:	8b37d318 	add	x24, x24, w23, sxtw #4
  400944:	f9400700 	ldr	x0, [x24, #8]
  400948:	b100041f 	cmn	x0, #0x1
  40094c:	54fff8e1 	b.ne	400868 <__libc_start_main+0x118>  // b.any
  400950:	17ffffc0 	b	400850 <__libc_start_main+0x100>
  400954:	940000a7 	bl	400bf0 <__libc_setup_tls>
  400958:	b0000440 	adrp	x0, 489000 <_nl_C_LC_IDENTIFICATION+0xa8>
  40095c:	f0000441 	adrp	x1, 48b000 <_dl_main_map+0x18>
  400960:	b0000442 	adrp	x2, 489000 <_nl_C_LC_IDENTIFICATION+0xa8>
  400964:	f9436c00 	ldr	x0, [x0, #1752]
  400968:	b9456821 	ldr	w1, [x1, #1384]
  40096c:	f9400000 	ldr	x0, [x0]
  400970:	9278dc00 	and	x0, x0, #0xffffffffffffff00
  400974:	f9007840 	str	x0, [x2, #240]
  400978:	340008e1 	cbz	w1, 400a94 <__libc_start_main+0x344>
  40097c:	b0000447 	adrp	x7, 489000 <_nl_C_LC_IDENTIFICATION+0xa8>
  400980:	f946cce7 	ldr	x7, [x7, #3480]
  400984:	b4000047 	cbz	x7, 40098c <__libc_start_main+0x23c>
  400988:	d503201f 	nop
  40098c:	b0000441 	adrp	x1, 489000 <_nl_C_LC_IDENTIFICATION+0xa8>
  400990:	b0000440 	adrp	x0, 489000 <_nl_C_LC_IDENTIFICATION+0xa8>
  400994:	f9436c21 	ldr	x1, [x1, #1752]
  400998:	f9400421 	ldr	x1, [x1, #8]
  40099c:	f9007c01 	str	x1, [x0, #248]
  4009a0:	b40000b6 	cbz	x22, 4009b4 <__libc_start_main+0x264>
  4009a4:	aa1603e0 	mov	x0, x22
  4009a8:	d2800002 	mov	x2, #0x0                   	// #0
  4009ac:	d2800001 	mov	x1, #0x0                   	// #0
  4009b0:	94001610 	bl	4061f0 <__cxa_atexit>
  4009b4:	b0000447 	adrp	x7, 489000 <_nl_C_LC_IDENTIFICATION+0xa8>
  4009b8:	b9406fe0 	ldr	w0, [sp, #108]
  4009bc:	f9403be1 	ldr	x1, [sp, #112]
  4009c0:	f9467ce7 	ldr	x7, [x7, #3320]
  4009c4:	f94000e2 	ldr	x2, [x7]
  4009c8:	94008a22 	bl	423250 <__libc_init_first>
  4009cc:	b40000b5 	cbz	x21, 4009e0 <__libc_start_main+0x290>
  4009d0:	aa1503e0 	mov	x0, x21
  4009d4:	d2800002 	mov	x2, #0x0                   	// #0
  4009d8:	d2800001 	mov	x1, #0x0                   	// #0
  4009dc:	94001605 	bl	4061f0 <__cxa_atexit>
  4009e0:	b0000447 	adrp	x7, 489000 <_nl_C_LC_IDENTIFICATION+0xa8>
  4009e4:	f9468ce7 	ldr	x7, [x7, #3352]
  4009e8:	b94000e0 	ldr	w0, [x7]
  4009ec:	35000720 	cbnz	w0, 400ad0 <__libc_start_main+0x380>
  4009f0:	b40000f4 	cbz	x20, 400a0c <__libc_start_main+0x2bc>
  4009f4:	b0000447 	adrp	x7, 489000 <_nl_C_LC_IDENTIFICATION+0xa8>
  4009f8:	b9406fe0 	ldr	w0, [sp, #108]
  4009fc:	f9403be1 	ldr	x1, [sp, #112]
  400a00:	f9467ce7 	ldr	x7, [x7, #3320]
  400a04:	f94000e2 	ldr	x2, [x7]
  400a08:	d63f0280 	blr	x20
  400a0c:	d2800001 	mov	x1, #0x0                   	// #0
  400a10:	d2800000 	mov	x0, #0x0                   	// #0
  400a14:	9400817c 	bl	421004 <_dl_debug_initialize>
  400a18:	9102a3e0 	add	x0, sp, #0xa8
  400a1c:	94001249 	bl	405340 <_setjmp>
  400a20:	35000200 	cbnz	w0, 400a60 <__libc_start_main+0x310>
  400a24:	b0000447 	adrp	x7, 489000 <_nl_C_LC_IDENTIFICATION+0xa8>
  400a28:	d53bd043 	mrs	x3, tpidr_el0
  400a2c:	d11c0063 	sub	x3, x3, #0x700
  400a30:	9102a3e0 	add	x0, sp, #0xa8
  400a34:	f9467ce7 	ldr	x7, [x7, #3320]
  400a38:	f9408064 	ldr	x4, [x3, #256]
  400a3c:	f94000e2 	ldr	x2, [x7]
  400a40:	f9008060 	str	x0, [x3, #256]
  400a44:	f9407c63 	ldr	x3, [x3, #248]
  400a48:	a9160fe4 	stp	x4, x3, [sp, #352]
  400a4c:	b9406fe0 	ldr	w0, [sp, #108]
  400a50:	f9403be1 	ldr	x1, [sp, #112]
  400a54:	f9403fe3 	ldr	x3, [sp, #120]
  400a58:	d63f0060 	blr	x3
  400a5c:	94001555 	bl	405fb0 <exit>
  400a60:	d503201f 	nop
  400a64:	b0000447 	adrp	x7, 489000 <_nl_C_LC_IDENTIFICATION+0xa8>
  400a68:	12800000 	mov	w0, #0xffffffff            	// #-1
  400a6c:	f9473ce1 	ldr	x1, [x7, #3704]
  400a70:	94013178 	bl	44d050 <__aarch64_ldadd4_acq>
  400a74:	7100041f 	cmp	w0, #0x1
  400a78:	540000a0 	b.eq	400a8c <__libc_start_main+0x33c>  // b.none
  400a7c:	d2800ba8 	mov	x8, #0x5d                  	// #93
  400a80:	d2800000 	mov	x0, #0x0                   	// #0
  400a84:	d4000001 	svc	#0x0
  400a88:	17fffffe 	b	400a80 <__libc_start_main+0x330>
  400a8c:	52800000 	mov	w0, #0x0                   	// #0
  400a90:	94001548 	bl	405fb0 <exit>
  400a94:	940088df 	bl	422e10 <_dl_discover_osversion>
  400a98:	37f80260 	tbnz	w0, #31, 400ae4 <__libc_start_main+0x394>
  400a9c:	f947c2f7 	ldr	x23, [x23, #3968]
  400aa0:	b94002e1 	ldr	w1, [x23]
  400aa4:	350001a1 	cbnz	w1, 400ad8 <__libc_start_main+0x388>
  400aa8:	b0000447 	adrp	x7, 489000 <_nl_C_LC_IDENTIFICATION+0xa8>
  400aac:	f947c0e7 	ldr	x7, [x7, #3968]
  400ab0:	b90000e0 	str	w0, [x7]
  400ab4:	5280dfe1 	mov	w1, #0x6ff                 	// #1791
  400ab8:	72a00061 	movk	w1, #0x3, lsl #16
  400abc:	6b01001f 	cmp	w0, w1
  400ac0:	54fff5ec 	b.gt	40097c <__libc_start_main+0x22c>
  400ac4:	d0000280 	adrp	x0, 452000 <__gcc_personality_v0+0x100>
  400ac8:	913f2000 	add	x0, x0, #0xfc8
  400acc:	940038be 	bl	40edc4 <__libc_fatal>
  400ad0:	9400003c 	bl	400bc0 <__libc_check_standard_fds>
  400ad4:	17ffffc7 	b	4009f0 <__libc_start_main+0x2a0>
  400ad8:	6b00003f 	cmp	w1, w0
  400adc:	54fffec9 	b.ls	400ab4 <__libc_start_main+0x364>  // b.plast
  400ae0:	17fffff2 	b	400aa8 <__libc_start_main+0x358>
  400ae4:	d0000280 	adrp	x0, 452000 <__gcc_personality_v0+0x100>
  400ae8:	913f8000 	add	x0, x0, #0xfe0
  400aec:	940038b6 	bl	40edc4 <__libc_fatal>

0000000000400af0 <check_one_fd>:
  400af0:	a9b57bfd 	stp	x29, x30, [sp, #-176]!
  400af4:	910003fd 	mov	x29, sp
  400af8:	a90153f3 	stp	x19, x20, [sp, #16]
  400afc:	2a0103f4 	mov	w20, w1
  400b00:	2a0003f3 	mov	w19, w0
  400b04:	52800021 	mov	w1, #0x1                   	// #1
  400b08:	940079ea 	bl	41f2b0 <__fcntl64_nocancel>
  400b0c:	3100041f 	cmn	w0, #0x1
  400b10:	54000080 	b.eq	400b20 <check_one_fd+0x30>  // b.none
  400b14:	a94153f3 	ldp	x19, x20, [sp, #16]
  400b18:	a8cb7bfd 	ldp	x29, x30, [sp], #176
  400b1c:	d65f03c0 	ret
  400b20:	b0000440 	adrp	x0, 489000 <_nl_C_LC_IDENTIFICATION+0xa8>
  400b24:	f946e800 	ldr	x0, [x0, #3536]
  400b28:	d53bd041 	mrs	x1, tpidr_el0
  400b2c:	b8606820 	ldr	w0, [x1, x0]
  400b30:	7100241f 	cmp	w0, #0x9
  400b34:	54ffff01 	b.ne	400b14 <check_one_fd+0x24>  // b.any
  400b38:	f90013f5 	str	x21, [sp, #32]
  400b3c:	7140229f 	cmp	w20, #0x8, lsl #12
  400b40:	54000341 	b.ne	400ba8 <check_one_fd+0xb8>  // b.any
  400b44:	f0000280 	adrp	x0, 453000 <_IO_stdin_used+0xf0>
  400b48:	91026000 	add	x0, x0, #0x98
  400b4c:	d2802075 	mov	x21, #0x103                 	// #259
  400b50:	2a1403e1 	mov	w1, w20
  400b54:	52800002 	mov	w2, #0x0                   	// #0
  400b58:	94007a3e 	bl	41f450 <__open64_nocancel>
  400b5c:	6b00027f 	cmp	w19, w0
  400b60:	540001a1 	b.ne	400b94 <check_one_fd+0xa4>  // b.any
  400b64:	2a1303e1 	mov	w1, w19
  400b68:	9100c3e2 	add	x2, sp, #0x30
  400b6c:	52800000 	mov	w0, #0x0                   	// #0
  400b70:	94007748 	bl	41e890 <__fxstat>
  400b74:	35000100 	cbnz	w0, 400b94 <check_one_fd+0xa4>
  400b78:	b94043e0 	ldr	w0, [sp, #64]
  400b7c:	12140c00 	and	w0, w0, #0xf000
  400b80:	7140081f 	cmp	w0, #0x2, lsl #12
  400b84:	54000081 	b.ne	400b94 <check_one_fd+0xa4>  // b.any
  400b88:	f9402be0 	ldr	x0, [sp, #80]
  400b8c:	eb15001f 	cmp	x0, x21
  400b90:	54000080 	b.eq	400ba0 <check_one_fd+0xb0>  // b.none
  400b94:	d4207d00 	brk	#0x3e8
  400b98:	d4207d00 	brk	#0x3e8
  400b9c:	17fffffe 	b	400b94 <check_one_fd+0xa4>
  400ba0:	f94013f5 	ldr	x21, [sp, #32]
  400ba4:	17ffffdc 	b	400b14 <check_one_fd+0x24>
  400ba8:	f0000280 	adrp	x0, 453000 <_IO_stdin_used+0xf0>
  400bac:	d28020f5 	mov	x21, #0x107                 	// #263
  400bb0:	91022000 	add	x0, x0, #0x88
  400bb4:	17ffffe7 	b	400b50 <check_one_fd+0x60>
  400bb8:	d503201f 	nop
  400bbc:	d503201f 	nop

0000000000400bc0 <__libc_check_standard_fds>:
  400bc0:	a9bf7bfd 	stp	x29, x30, [sp, #-16]!
  400bc4:	52900021 	mov	w1, #0x8001                	// #32769
  400bc8:	52800000 	mov	w0, #0x0                   	// #0
  400bcc:	910003fd 	mov	x29, sp
  400bd0:	97ffffc8 	bl	400af0 <check_one_fd>
  400bd4:	52900001 	mov	w1, #0x8000                	// #32768
  400bd8:	52800020 	mov	w0, #0x1                   	// #1
  400bdc:	97ffffc5 	bl	400af0 <check_one_fd>
  400be0:	a8c17bfd 	ldp	x29, x30, [sp], #16
  400be4:	52900001 	mov	w1, #0x8000                	// #32768
  400be8:	52800040 	mov	w0, #0x2                   	// #2
  400bec:	17ffffc1 	b	400af0 <check_one_fd>

0000000000400bf0 <__libc_setup_tls>:
  400bf0:	a9b87bfd 	stp	x29, x30, [sp, #-128]!
  400bf4:	b0000440 	adrp	x0, 489000 <_nl_C_LC_IDENTIFICATION+0xa8>
  400bf8:	910003fd 	mov	x29, sp
  400bfc:	f9471001 	ldr	x1, [x0, #3616]
  400c00:	a90153f3 	stp	x19, x20, [sp, #16]
  400c04:	f947f002 	ldr	x2, [x0, #4064]
  400c08:	a9025bf5 	stp	x21, x22, [sp, #32]
  400c0c:	f9400021 	ldr	x1, [x1]
  400c10:	a90363f7 	stp	x23, x24, [sp, #48]
  400c14:	a9046bf9 	stp	x25, x26, [sp, #64]
  400c18:	a90573fb 	stp	x27, x28, [sp, #80]
  400c1c:	f9400058 	ldr	x24, [x2]
  400c20:	b4000ba1 	cbz	x1, 400d94 <__libc_setup_tls+0x1a4>
  400c24:	f9479000 	ldr	x0, [x0, #3872]
  400c28:	f9400000 	ldr	x0, [x0]
  400c2c:	d37df002 	lsl	x2, x0, #3
  400c30:	cb000042 	sub	x2, x2, x0
  400c34:	8b020c22 	add	x2, x1, x2, lsl #3
  400c38:	eb02003f 	cmp	x1, x2
  400c3c:	540000a3 	b.cc	400c50 <__libc_setup_tls+0x60>  // b.lo, b.ul, b.last
  400c40:	14000055 	b	400d94 <__libc_setup_tls+0x1a4>
  400c44:	9100e021 	add	x1, x1, #0x38
  400c48:	eb02003f 	cmp	x1, x2
  400c4c:	54000a42 	b.cs	400d94 <__libc_setup_tls+0x1a4>  // b.hs, b.nlast
  400c50:	b9400020 	ldr	w0, [x1]
  400c54:	71001c1f 	cmp	w0, #0x7
  400c58:	54ffff61 	b.ne	400c44 <__libc_setup_tls+0x54>  // b.any
  400c5c:	f9401839 	ldr	x25, [x1, #48]
  400c60:	d280021c 	mov	x28, #0x10                  	// #16
  400c64:	f9400317 	ldr	x23, [x24]
  400c68:	eb1c033f 	cmp	x25, x28
  400c6c:	f9400822 	ldr	x2, [x1, #16]
  400c70:	9a9c233b 	csel	x27, x25, x28, cs  // cs = hs, nlast
  400c74:	d2800000 	mov	x0, #0x0                   	// #0
  400c78:	d100077a 	sub	x26, x27, #0x1
  400c7c:	8b0202f7 	add	x23, x23, x2
  400c80:	cb1b03e2 	neg	x2, x27
  400c84:	f90037e2 	str	x2, [sp, #104]
  400c88:	a9425036 	ldp	x22, x20, [x1, #32]
  400c8c:	9400810d 	bl	4210c0 <_dl_tls_static_surplus_init>
  400c90:	f100033f 	cmp	x25, #0x0
  400c94:	d2800020 	mov	x0, #0x1                   	// #1
  400c98:	9a801325 	csel	x5, x25, x0, ne  // ne = any
  400c9c:	54000960 	b.eq	400dc8 <__libc_setup_tls+0x1d8>  // b.none
  400ca0:	91003f3c 	add	x28, x25, #0xf
  400ca4:	9ac50b9c 	udiv	x28, x28, x5
  400ca8:	9b057f9c 	mul	x28, x28, x5
  400cac:	f9003bfc 	str	x28, [sp, #112]
  400cb0:	90000466 	adrp	x6, 48c000 <object.0+0x28>
  400cb4:	8b1b0281 	add	x1, x20, x27
  400cb8:	910020d3 	add	x19, x6, #0x8
  400cbc:	a90717e6 	stp	x6, x5, [sp, #112]
  400cc0:	f94004c0 	ldr	x0, [x6, #8]
  400cc4:	911c0000 	add	x0, x0, #0x700
  400cc8:	8b010000 	add	x0, x0, x1
  400ccc:	8b1c0000 	add	x0, x0, x28
  400cd0:	94007a78 	bl	41f6b0 <__sbrk>
  400cd4:	911c0015 	add	x21, x0, #0x700
  400cd8:	d28007c8 	mov	x8, #0x3e                  	// #62
  400cdc:	f94037e0 	ldr	x0, [sp, #104]
  400ce0:	8b1a02b5 	add	x21, x21, x26
  400ce4:	f9023f1c 	str	x28, [x24, #1144]
  400ce8:	aa1603e2 	mov	x2, x22
  400cec:	8a0002b5 	and	x21, x21, x0
  400cf0:	aa1703e1 	mov	x1, x23
  400cf4:	8b1c02a0 	add	x0, x21, x28
  400cf8:	f9000668 	str	x8, [x19, #8]
  400cfc:	f9001660 	str	x0, [x19, #40]
  400d00:	f9001a7f 	str	xzr, [x19, #48]
  400d04:	97fffd6b 	bl	4002b0 <.plt+0x10>
  400d08:	91006260 	add	x0, x19, #0x18
  400d0c:	f90002a0 	str	x0, [x21]
  400d10:	d51bd055 	msr	tpidr_el0, x21
  400d14:	91114304 	add	x4, x24, #0x450
  400d18:	8b190280 	add	x0, x20, x25
  400d1c:	a94717e6 	ldp	x6, x5, [sp, #112]
  400d20:	f100033f 	cmp	x25, #0x0
  400d24:	d1000400 	sub	x0, x0, #0x1
  400d28:	a9016494 	stp	x20, x25, [x4, #16]
  400d2c:	9a941014 	csel	x20, x0, x20, ne  // ne = any
  400d30:	91206263 	add	x3, x19, #0x818
  400d34:	a9005897 	stp	x23, x22, [x4]
  400d38:	d2800021 	mov	x1, #0x1                   	// #1
  400d3c:	9ac50a94 	udiv	x20, x20, x5
  400d40:	91102262 	add	x2, x19, #0x408
  400d44:	f94004c0 	ldr	x0, [x6, #8]
  400d48:	d2800806 	mov	x6, #0x40                  	// #64
  400d4c:	a9000861 	stp	x1, x2, [x3]
  400d50:	9b057294 	madd	x20, x20, x5, x28
  400d54:	91003c00 	add	x0, x0, #0xf
  400d58:	a902047b 	stp	x27, x1, [x3, #32]
  400d5c:	8b140000 	add	x0, x0, x20
  400d60:	927cec00 	and	x0, x0, #0xfffffffffffffff0
  400d64:	f9020666 	str	x6, [x19, #1032]
  400d68:	f9021a78 	str	x24, [x19, #1072]
  400d6c:	f9024301 	str	x1, [x24, #1152]
  400d70:	f9041660 	str	x0, [x19, #2088]
  400d74:	f9041a74 	str	x20, [x19, #2096]
  400d78:	a94153f3 	ldp	x19, x20, [sp, #16]
  400d7c:	a9425bf5 	ldp	x21, x22, [sp, #32]
  400d80:	a94363f7 	ldp	x23, x24, [sp, #48]
  400d84:	a9446bf9 	ldp	x25, x26, [sp, #64]
  400d88:	a94573fb 	ldp	x27, x28, [sp, #80]
  400d8c:	a8c87bfd 	ldp	x29, x30, [sp], #128
  400d90:	d65f03c0 	ret
  400d94:	d2800000 	mov	x0, #0x0                   	// #0
  400d98:	940080ca 	bl	4210c0 <_dl_tls_static_surplus_init>
  400d9c:	d280021c 	mov	x28, #0x10                  	// #16
  400da0:	928001e0 	mov	x0, #0xfffffffffffffff0    	// #-16
  400da4:	aa1c03fb 	mov	x27, x28
  400da8:	d28001fa 	mov	x26, #0xf                   	// #15
  400dac:	d2800025 	mov	x5, #0x1                   	// #1
  400db0:	d2800019 	mov	x25, #0x0                   	// #0
  400db4:	d2800017 	mov	x23, #0x0                   	// #0
  400db8:	d2800016 	mov	x22, #0x0                   	// #0
  400dbc:	d2800014 	mov	x20, #0x0                   	// #0
  400dc0:	a906f3e0 	stp	x0, x28, [sp, #104]
  400dc4:	17ffffbb 	b	400cb0 <__libc_setup_tls+0xc0>
  400dc8:	aa0003e5 	mov	x5, x0
  400dcc:	aa1c03fb 	mov	x27, x28
  400dd0:	f9003bfc 	str	x28, [sp, #112]
  400dd4:	17ffffb7 	b	400cb0 <__libc_setup_tls+0xc0>
  400dd8:	d503201f 	nop
  400ddc:	d503201f 	nop

0000000000400de0 <__tls_get_addr>:
  400de0:	d53bd041 	mrs	x1, tpidr_el0
  400de4:	f9400400 	ldr	x0, [x0, #8]
  400de8:	f9400021 	ldr	x1, [x1]
  400dec:	f9400821 	ldr	x1, [x1, #16]
  400df0:	8b000020 	add	x0, x1, x0
  400df4:	d65f03c0 	ret
  400df8:	d503201f 	nop
  400dfc:	d503201f 	nop

0000000000400e00 <__libc_csu_init>:
  400e00:	a9bc7bfd 	stp	x29, x30, [sp, #-64]!
  400e04:	910003fd 	mov	x29, sp
  400e08:	a90363f7 	stp	x23, x24, [sp, #48]
  400e0c:	d0000437 	adrp	x23, 486000 <__FRAME_END__+0xf468>
  400e10:	d0000438 	adrp	x24, 486000 <__FRAME_END__+0xf468>
  400e14:	913f22f7 	add	x23, x23, #0xfc8
  400e18:	913f2318 	add	x24, x24, #0xfc8
  400e1c:	cb1802f7 	sub	x23, x23, x24
  400e20:	a90153f3 	stp	x19, x20, [sp, #16]
  400e24:	2a0003f4 	mov	w20, w0
  400e28:	a9025bf5 	stp	x21, x22, [sp, #32]
  400e2c:	9343fef7 	asr	x23, x23, #3
  400e30:	aa0103f5 	mov	x21, x1
  400e34:	aa0203f6 	mov	x22, x2
  400e38:	b4000157 	cbz	x23, 400e60 <__libc_csu_init+0x60>
  400e3c:	d2800013 	mov	x19, #0x0                   	// #0
  400e40:	f8737b03 	ldr	x3, [x24, x19, lsl #3]
  400e44:	aa1603e2 	mov	x2, x22
  400e48:	91000673 	add	x19, x19, #0x1
  400e4c:	aa1503e1 	mov	x1, x21
  400e50:	2a1403e0 	mov	w0, w20
  400e54:	d63f0060 	blr	x3
  400e58:	eb1302ff 	cmp	x23, x19
  400e5c:	54ffff21 	b.ne	400e40 <__libc_csu_init+0x40>  // b.any
  400e60:	d0000437 	adrp	x23, 486000 <__FRAME_END__+0xf468>
  400e64:	d0000438 	adrp	x24, 486000 <__FRAME_END__+0xf468>
  400e68:	913f62f7 	add	x23, x23, #0xfd8
  400e6c:	913f2318 	add	x24, x24, #0xfc8
  400e70:	cb1802f7 	sub	x23, x23, x24
  400e74:	97fffd03 	bl	400280 <_init>
  400e78:	9343fef7 	asr	x23, x23, #3
  400e7c:	b4000177 	cbz	x23, 400ea8 <__libc_csu_init+0xa8>
  400e80:	d2800013 	mov	x19, #0x0                   	// #0
  400e84:	d503201f 	nop
  400e88:	f8737b03 	ldr	x3, [x24, x19, lsl #3]
  400e8c:	aa1603e2 	mov	x2, x22
  400e90:	91000673 	add	x19, x19, #0x1
  400e94:	aa1503e1 	mov	x1, x21
  400e98:	2a1403e0 	mov	w0, w20
  400e9c:	d63f0060 	blr	x3
  400ea0:	eb1302ff 	cmp	x23, x19
  400ea4:	54ffff21 	b.ne	400e88 <__libc_csu_init+0x88>  // b.any
  400ea8:	a94153f3 	ldp	x19, x20, [sp, #16]
  400eac:	a9425bf5 	ldp	x21, x22, [sp, #32]
  400eb0:	a94363f7 	ldp	x23, x24, [sp, #48]
  400eb4:	a8c47bfd 	ldp	x29, x30, [sp], #64
  400eb8:	d65f03c0 	ret
  400ebc:	d503201f 	nop

0000000000400ec0 <__libc_csu_fini>:
  400ec0:	a9be7bfd 	stp	x29, x30, [sp, #-32]!
  400ec4:	d0000420 	adrp	x0, 486000 <__FRAME_END__+0xf468>
  400ec8:	913f6000 	add	x0, x0, #0xfd8
  400ecc:	910003fd 	mov	x29, sp
  400ed0:	a90153f3 	stp	x19, x20, [sp, #16]
  400ed4:	d0000433 	adrp	x19, 486000 <__FRAME_END__+0xf468>
  400ed8:	913fa273 	add	x19, x19, #0xfe8
  400edc:	cb000273 	sub	x19, x19, x0
  400ee0:	9343fe73 	asr	x19, x19, #3
  400ee4:	b40000f3 	cbz	x19, 400f00 <__libc_csu_fini+0x40>
  400ee8:	d0000434 	adrp	x20, 486000 <__FRAME_END__+0xf468>
  400eec:	913f4294 	add	x20, x20, #0xfd0
  400ef0:	f8737a80 	ldr	x0, [x20, x19, lsl #3]
  400ef4:	d63f0000 	blr	x0
  400ef8:	f1000673 	subs	x19, x19, #0x1
  400efc:	54ffffa1 	b.ne	400ef0 <__libc_csu_fini+0x30>  // b.any
  400f00:	a94153f3 	ldp	x19, x20, [sp, #16]
  400f04:	a8c27bfd 	ldp	x29, x30, [sp], #32
  400f08:	140147fb 	b	452ef4 <_fini>
  400f0c:	d503201f 	nop

0000000000400f10 <__assert_fail_base>:
  400f10:	d101c3ff 	sub	sp, sp, #0x70
  400f14:	a9017bfd 	stp	x29, x30, [sp, #16]
  400f18:	910043fd 	add	x29, sp, #0x10
  400f1c:	a90253f3 	stp	x19, x20, [sp, #32]
  400f20:	b0000454 	adrp	x20, 489000 <_nl_C_LC_IDENTIFICATION+0xa8>
  400f24:	aa0403f3 	mov	x19, x4
  400f28:	f945de86 	ldr	x6, [x20, #3000]
  400f2c:	a9035bf5 	stp	x21, x22, [sp, #48]
  400f30:	aa0003f6 	mov	x22, x0
  400f34:	a90463f7 	stp	x23, x24, [sp, #64]
  400f38:	aa0103f5 	mov	x21, x1
  400f3c:	aa0203f7 	mov	x23, x2
  400f40:	f9466e85 	ldr	x5, [x20, #3288]
  400f44:	f94000c7 	ldr	x7, [x6]
  400f48:	f90037e7 	str	x7, [sp, #104]
  400f4c:	d2800007 	mov	x7, #0x0                   	// #0
  400f50:	2a0303f8 	mov	w24, w3
  400f54:	b4000085 	cbz	x5, 400f64 <__assert_fail_base+0x54>
  400f58:	d2800001 	mov	x1, #0x0                   	// #0
  400f5c:	52800020 	mov	w0, #0x1                   	// #1
  400f60:	d503201f 	nop
  400f64:	f946de80 	ldr	x0, [x20, #3512]
  400f68:	f0000286 	adrp	x6, 453000 <_IO_stdin_used+0xf0>
  400f6c:	f0000288 	adrp	x8, 453000 <_IO_stdin_used+0xf0>
  400f70:	911ba0c6 	add	x6, x6, #0x6e8
  400f74:	9102a108 	add	x8, x8, #0xa8
  400f78:	910173e9 	add	x9, sp, #0x5c
  400f7c:	f9400002 	ldr	x2, [x0]
  400f80:	2a1803e5 	mov	w5, w24
  400f84:	aa1703e4 	mov	x4, x23
  400f88:	aa1603e1 	mov	x1, x22
  400f8c:	910183e0 	add	x0, sp, #0x60
  400f90:	39400043 	ldrb	w3, [x2]
  400f94:	a90027f5 	stp	x21, x9, [sp]
  400f98:	7100007f 	cmp	w3, #0x0
  400f9c:	9a861103 	csel	x3, x8, x6, ne  // ne = any
  400fa0:	f100027f 	cmp	x19, #0x0
  400fa4:	9a861266 	csel	x6, x19, x6, ne  // ne = any
  400fa8:	9a861107 	csel	x7, x8, x6, ne  // ne = any
  400fac:	94001671 	bl	406970 <___asprintf>
  400fb0:	37f80500 	tbnz	w0, #31, 401050 <__assert_fail_base+0x140>
  400fb4:	f94033e2 	ldr	x2, [sp, #96]
  400fb8:	f0000341 	adrp	x1, 46b000 <__tens+0x2ee0>
  400fbc:	d2800000 	mov	x0, #0x0                   	// #0
  400fc0:	9120e021 	add	x1, x1, #0x838
  400fc4:	94002cdf 	bl	40c340 <__fxprintf>
  400fc8:	f9475e80 	ldr	x0, [x20, #3768]
  400fcc:	f9400000 	ldr	x0, [x0]
  400fd0:	94002e0c 	bl	40c800 <_IO_fflush>
  400fd4:	f947da94 	ldr	x20, [x20, #4016]
  400fd8:	d2800005 	mov	x5, #0x0                   	// #0
  400fdc:	b9405fe1 	ldr	w1, [sp, #92]
  400fe0:	12800004 	mov	w4, #0xffffffff            	// #-1
  400fe4:	52800443 	mov	w3, #0x22                  	// #34
  400fe8:	52800062 	mov	w2, #0x3                   	// #3
  400fec:	f9400286 	ldr	x6, [x20]
  400ff0:	d2800000 	mov	x0, #0x0                   	// #0
  400ff4:	0b060021 	add	w1, w1, w6
  400ff8:	4b0603e6 	neg	w6, w6
  400ffc:	0a060021 	and	w1, w1, w6
  401000:	b9005fe1 	str	w1, [sp, #92]
  401004:	93407c21 	sxtw	x1, w1
  401008:	94007a06 	bl	41f820 <__mmap64>
  40100c:	aa0003f3 	mov	x19, x0
  401010:	b100041f 	cmn	x0, #0x1
  401014:	54000180 	b.eq	401044 <__assert_fail_base+0x134>  // b.none
  401018:	b9405fe2 	ldr	w2, [sp, #92]
  40101c:	f94033e1 	ldr	x1, [sp, #96]
  401020:	b8004402 	str	w2, [x0], #4
  401024:	940064e7 	bl	41a3c0 <strcpy>
  401028:	f0000441 	adrp	x1, 48c000 <object.0+0x28>
  40102c:	aa1303e0 	mov	x0, x19
  401030:	9126e021 	add	x1, x1, #0x9b8
  401034:	94013013 	bl	44d080 <__aarch64_swp8_acq>
  401038:	b4000060 	cbz	x0, 401044 <__assert_fail_base+0x134>
  40103c:	b9400001 	ldr	w1, [x0]
  401040:	94007a10 	bl	41f880 <__munmap>
  401044:	f94033e0 	ldr	x0, [sp, #96]
  401048:	94005f02 	bl	418c50 <__free>
  40104c:	97fffcbd 	bl	400340 <abort>
  401050:	d0000281 	adrp	x1, 453000 <_IO_stdin_used+0xf0>
  401054:	91038021 	add	x1, x1, #0xe0
  401058:	d2800242 	mov	x2, #0x12                  	// #18
  40105c:	52800040 	mov	w0, #0x2                   	// #2
  401060:	940076a8 	bl	41eb00 <__libc_write>
  401064:	97fffcb7 	bl	400340 <abort>
  401068:	d503201f 	nop
  40106c:	d503201f 	nop

0000000000401070 <__assert_fail>:
  401070:	a9bd7bfd 	stp	x29, x30, [sp, #-48]!
  401074:	910003fd 	mov	x29, sp
  401078:	a90153f3 	stp	x19, x20, [sp, #16]
  40107c:	aa0003f3 	mov	x19, x0
  401080:	aa0103f4 	mov	x20, x1
  401084:	f0000300 	adrp	x0, 464000 <translit_from_idx+0xc20>
  401088:	d0000281 	adrp	x1, 453000 <_IO_stdin_used+0xf0>
  40108c:	91372000 	add	x0, x0, #0xdc8
  401090:	9102c021 	add	x1, x1, #0xb0
  401094:	a9025bf5 	stp	x21, x22, [sp, #32]
  401098:	aa0303f6 	mov	x22, x3
  40109c:	2a0203f5 	mov	w21, w2
  4010a0:	528000a2 	mov	w2, #0x5                   	// #5
  4010a4:	94000007 	bl	4010c0 <__dcgettext>
  4010a8:	aa1603e4 	mov	x4, x22
  4010ac:	2a1503e3 	mov	w3, w21
  4010b0:	aa1403e2 	mov	x2, x20
  4010b4:	aa1303e1 	mov	x1, x19
  4010b8:	97ffff96 	bl	400f10 <__assert_fail_base>
  4010bc:	d503201f 	nop

00000000004010c0 <__dcgettext>:
  4010c0:	2a0203e5 	mov	w5, w2
  4010c4:	d2800004 	mov	x4, #0x0                   	// #0
  4010c8:	52800003 	mov	w3, #0x0                   	// #0
  4010cc:	d2800002 	mov	x2, #0x0                   	// #0
  4010d0:	140002c5 	b	401be4 <__dcigettext>
  4010d4:	d503201f 	nop
  4010d8:	d503201f 	nop
  4010dc:	d503201f 	nop

00000000004010e0 <plural_eval>:
  4010e0:	a9bd7bfd 	stp	x29, x30, [sp, #-48]!
  4010e4:	910003fd 	mov	x29, sp
  4010e8:	a90153f3 	stp	x19, x20, [sp, #16]
  4010ec:	aa0003f3 	mov	x19, x0
  4010f0:	aa0103f4 	mov	x20, x1
  4010f4:	f90013f5 	str	x21, [sp, #32]
  4010f8:	b9400260 	ldr	w0, [x19]
  4010fc:	7100081f 	cmp	w0, #0x2
  401100:	54000360 	b.eq	40116c <plural_eval+0x8c>  // b.none
  401104:	540001cc 	b.gt	40113c <plural_eval+0x5c>
  401108:	340006c0 	cbz	w0, 4011e0 <plural_eval+0x100>
  40110c:	7100041f 	cmp	w0, #0x1
  401110:	54000721 	b.ne	4011f4 <plural_eval+0x114>  // b.any
  401114:	f9400660 	ldr	x0, [x19, #8]
  401118:	aa1403e1 	mov	x1, x20
  40111c:	97fffff1 	bl	4010e0 <plural_eval>
  401120:	f100001f 	cmp	x0, #0x0
  401124:	9a9f17f5 	cset	x21, eq  // eq = none
  401128:	aa1503e0 	mov	x0, x21
  40112c:	a94153f3 	ldp	x19, x20, [sp, #16]
  401130:	f94013f5 	ldr	x21, [sp, #32]
  401134:	a8c37bfd 	ldp	x29, x30, [sp], #48
  401138:	d65f03c0 	ret
  40113c:	aa1403e1 	mov	x1, x20
  401140:	71000c1f 	cmp	w0, #0x3
  401144:	54000581 	b.ne	4011f4 <plural_eval+0x114>  // b.any
  401148:	f9400660 	ldr	x0, [x19, #8]
  40114c:	97ffffe5 	bl	4010e0 <plural_eval>
  401150:	f100001f 	cmp	x0, #0x0
  401154:	9a9f17e0 	cset	x0, eq  // eq = none
  401158:	8b000e73 	add	x19, x19, x0, lsl #3
  40115c:	f9400a73 	ldr	x19, [x19, #16]
  401160:	b9400260 	ldr	w0, [x19]
  401164:	7100081f 	cmp	w0, #0x2
  401168:	54fffce1 	b.ne	401104 <plural_eval+0x24>  // b.any
  40116c:	f9400660 	ldr	x0, [x19, #8]
  401170:	aa1403e1 	mov	x1, x20
  401174:	97ffffdb 	bl	4010e0 <plural_eval>
  401178:	aa0003f5 	mov	x21, x0
  40117c:	b9400661 	ldr	w1, [x19, #4]
  401180:	71003c3f 	cmp	w1, #0xf
  401184:	54000480 	b.eq	401214 <plural_eval+0x134>  // b.none
  401188:	7100383f 	cmp	w1, #0xe
  40118c:	540007a0 	b.eq	401280 <plural_eval+0x1a0>  // b.none
  401190:	f9400a60 	ldr	x0, [x19, #16]
  401194:	aa1403e1 	mov	x1, x20
  401198:	97ffffd2 	bl	4010e0 <plural_eval>
  40119c:	b9400661 	ldr	w1, [x19, #4]
  4011a0:	aa0003f3 	mov	x19, x0
  4011a4:	7100203f 	cmp	w1, #0x8
  4011a8:	54000900 	b.eq	4012c8 <plural_eval+0x1e8>  // b.none
  4011ac:	54000488 	b.hi	40123c <plural_eval+0x15c>  // b.pmore
  4011b0:	7100143f 	cmp	w1, #0x5
  4011b4:	54000820 	b.eq	4012b8 <plural_eval+0x1d8>  // b.none
  4011b8:	54000349 	b.ls	401220 <plural_eval+0x140>  // b.plast
  4011bc:	cb0002a0 	sub	x0, x21, x0
  4011c0:	7100183f 	cmp	w1, #0x6
  4011c4:	8b1302b5 	add	x21, x21, x19
  4011c8:	9a8002b5 	csel	x21, x21, x0, eq  // eq = none
  4011cc:	aa1503e0 	mov	x0, x21
  4011d0:	a94153f3 	ldp	x19, x20, [sp, #16]
  4011d4:	f94013f5 	ldr	x21, [sp, #32]
  4011d8:	a8c37bfd 	ldp	x29, x30, [sp], #48
  4011dc:	d65f03c0 	ret
  4011e0:	b9400660 	ldr	w0, [x19, #4]
  4011e4:	aa1403f5 	mov	x21, x20
  4011e8:	34fffa00 	cbz	w0, 401128 <plural_eval+0x48>
  4011ec:	7100041f 	cmp	w0, #0x1
  4011f0:	540000e0 	b.eq	40120c <plural_eval+0x12c>  // b.none
  4011f4:	d2800015 	mov	x21, #0x0                   	// #0
  4011f8:	aa1503e0 	mov	x0, x21
  4011fc:	a94153f3 	ldp	x19, x20, [sp, #16]
  401200:	f94013f5 	ldr	x21, [sp, #32]
  401204:	a8c37bfd 	ldp	x29, x30, [sp], #48
  401208:	d65f03c0 	ret
  40120c:	f9400675 	ldr	x21, [x19, #8]
  401210:	17ffffc6 	b	401128 <plural_eval+0x48>
  401214:	b4000380 	cbz	x0, 401284 <plural_eval+0x1a4>
  401218:	d2800035 	mov	x21, #0x1                   	// #1
  40121c:	17ffffc3 	b	401128 <plural_eval+0x48>
  401220:	71000c3f 	cmp	w1, #0x3
  401224:	54000580 	b.eq	4012d4 <plural_eval+0x1f4>  // b.none
  401228:	7100103f 	cmp	w1, #0x4
  40122c:	54fffe41 	b.ne	4011f4 <plural_eval+0x114>  // b.any
  401230:	b4000360 	cbz	x0, 40129c <plural_eval+0x1bc>
  401234:	9ad30ab5 	udiv	x21, x21, x19
  401238:	17ffffbc 	b	401128 <plural_eval+0x48>
  40123c:	71002c3f 	cmp	w1, #0xb
  401240:	54000360 	b.eq	4012ac <plural_eval+0x1cc>  // b.none
  401244:	54000109 	b.ls	401264 <plural_eval+0x184>  // b.plast
  401248:	7100303f 	cmp	w1, #0xc
  40124c:	54000480 	b.eq	4012dc <plural_eval+0x1fc>  // b.none
  401250:	7100343f 	cmp	w1, #0xd
  401254:	54fffd01 	b.ne	4011f4 <plural_eval+0x114>  // b.any
  401258:	eb0002bf 	cmp	x21, x0
  40125c:	9a9f07f5 	cset	x21, ne  // ne = any
  401260:	17ffffb2 	b	401128 <plural_eval+0x48>
  401264:	7100243f 	cmp	w1, #0x9
  401268:	54000400 	b.eq	4012e8 <plural_eval+0x208>  // b.none
  40126c:	7100283f 	cmp	w1, #0xa
  401270:	54fffc21 	b.ne	4011f4 <plural_eval+0x114>  // b.any
  401274:	eb0002bf 	cmp	x21, x0
  401278:	9a9f87f5 	cset	x21, ls  // ls = plast
  40127c:	17ffffab 	b	401128 <plural_eval+0x48>
  401280:	b4fff540 	cbz	x0, 401128 <plural_eval+0x48>
  401284:	f9400a60 	ldr	x0, [x19, #16]
  401288:	aa1403e1 	mov	x1, x20
  40128c:	97ffff95 	bl	4010e0 <plural_eval>
  401290:	f100001f 	cmp	x0, #0x0
  401294:	9a9f07f5 	cset	x21, ne  // ne = any
  401298:	17ffffa4 	b	401128 <plural_eval+0x48>
  40129c:	52800100 	mov	w0, #0x8                   	// #8
  4012a0:	94001064 	bl	405430 <raise>
  4012a4:	9ad30ab5 	udiv	x21, x21, x19
  4012a8:	17ffffa0 	b	401128 <plural_eval+0x48>
  4012ac:	eb0002bf 	cmp	x21, x0
  4012b0:	9a9f37f5 	cset	x21, cs  // cs = hs, nlast
  4012b4:	17ffff9d 	b	401128 <plural_eval+0x48>
  4012b8:	b40001e0 	cbz	x0, 4012f4 <plural_eval+0x214>
  4012bc:	9ad30aa0 	udiv	x0, x21, x19
  4012c0:	9b13d415 	msub	x21, x0, x19, x21
  4012c4:	17ffff99 	b	401128 <plural_eval+0x48>
  4012c8:	eb0002bf 	cmp	x21, x0
  4012cc:	9a9f27f5 	cset	x21, cc  // cc = lo, ul, last
  4012d0:	17ffff96 	b	401128 <plural_eval+0x48>
  4012d4:	9b007eb5 	mul	x21, x21, x0
  4012d8:	17ffff94 	b	401128 <plural_eval+0x48>
  4012dc:	eb0002bf 	cmp	x21, x0
  4012e0:	9a9f17f5 	cset	x21, eq  // eq = none
  4012e4:	17ffff91 	b	401128 <plural_eval+0x48>
  4012e8:	eb0002bf 	cmp	x21, x0
  4012ec:	9a9f97f5 	cset	x21, hi  // hi = pmore
  4012f0:	17ffff8e 	b	401128 <plural_eval+0x48>
  4012f4:	52800100 	mov	w0, #0x8                   	// #8
  4012f8:	9400104e 	bl	405430 <raise>
  4012fc:	17fffff0 	b	4012bc <plural_eval+0x1dc>

0000000000401300 <transcmp>:
  401300:	a9be7bfd 	stp	x29, x30, [sp, #-32]!
  401304:	910003fd 	mov	x29, sp
  401308:	a90153f3 	stp	x19, x20, [sp, #16]
  40130c:	aa0003f4 	mov	x20, x0
  401310:	aa0103f3 	mov	x19, x1
  401314:	f9401000 	ldr	x0, [x0, #32]
  401318:	b40002e0 	cbz	x0, 401374 <transcmp+0x74>
  40131c:	9100e280 	add	x0, x20, #0x38
  401320:	f9401261 	ldr	x1, [x19, #32]
  401324:	b4000241 	cbz	x1, 40136c <transcmp+0x6c>
  401328:	9100e261 	add	x1, x19, #0x38
  40132c:	940063e5 	bl	41a2c0 <strcmp>
  401330:	35000180 	cbnz	w0, 401360 <transcmp+0x60>
  401334:	f9400261 	ldr	x1, [x19]
  401338:	f9400280 	ldr	x0, [x20]
  40133c:	940063e1 	bl	41a2c0 <strcmp>
  401340:	35000100 	cbnz	w0, 401360 <transcmp+0x60>
  401344:	f9400a61 	ldr	x1, [x19, #16]
  401348:	f9400a80 	ldr	x0, [x20, #16]
  40134c:	940063dd 	bl	41a2c0 <strcmp>
  401350:	35000080 	cbnz	w0, 401360 <transcmp+0x60>
  401354:	b9400a61 	ldr	w1, [x19, #8]
  401358:	b9400a80 	ldr	w0, [x20, #8]
  40135c:	4b010000 	sub	w0, w0, w1
  401360:	a94153f3 	ldp	x19, x20, [sp, #16]
  401364:	a8c27bfd 	ldp	x29, x30, [sp], #32
  401368:	d65f03c0 	ret
  40136c:	f9401e61 	ldr	x1, [x19, #56]
  401370:	17ffffef 	b	40132c <transcmp+0x2c>
  401374:	f9401e80 	ldr	x0, [x20, #56]
  401378:	17ffffea 	b	401320 <transcmp+0x20>
  40137c:	d503201f 	nop

0000000000401380 <_nl_find_msg>:
  401380:	a9b37bfd 	stp	x29, x30, [sp, #-208]!
  401384:	910003fd 	mov	x29, sp
  401388:	a90153f3 	stp	x19, x20, [sp, #16]
  40138c:	90000454 	adrp	x20, 489000 <_nl_C_LC_IDENTIFICATION+0xa8>
  401390:	b9400805 	ldr	w5, [x0, #8]
  401394:	f945de86 	ldr	x6, [x20, #3000]
  401398:	a9025bf5 	stp	x21, x22, [sp, #32]
  40139c:	a90363f7 	stp	x23, x24, [sp, #48]
  4013a0:	aa0203f8 	mov	x24, x2
  4013a4:	a9046bf9 	stp	x25, x26, [sp, #64]
  4013a8:	a90573fb 	stp	x27, x28, [sp, #80]
  4013ac:	f90043a0 	str	x0, [x29, #128]
  4013b0:	f94000c7 	ldr	x7, [x6]
  4013b4:	f90067a7 	str	x7, [x29, #200]
  4013b8:	d2800007 	mov	x7, #0x0                   	// #0
  4013bc:	a90693a1 	stp	x1, x4, [x29, #104]
  4013c0:	b9007fa3 	str	w3, [x29, #124]
  4013c4:	710000bf 	cmp	w5, #0x0
  4013c8:	5400112d 	b.le	4015ec <_nl_find_msg+0x26c>
  4013cc:	f94043a0 	ldr	x0, [x29, #128]
  4013d0:	f9400817 	ldr	x23, [x0, #16]
  4013d4:	b4000dd7 	cbz	x23, 40158c <_nl_find_msg+0x20c>
  4013d8:	f94032e0 	ldr	x0, [x23, #96]
  4013dc:	b9402af3 	ldr	w19, [x23, #40]
  4013e0:	b4000a60 	cbz	x0, 40152c <_nl_find_msg+0x1ac>
  4013e4:	aa1803e0 	mov	x0, x24
  4013e8:	97fffbc6 	bl	400300 <.plt+0x60>
  4013ec:	aa0003fa 	mov	x26, x0
  4013f0:	aa1803e0 	mov	x0, x24
  4013f4:	94000fa3 	bl	405280 <__hash_string>
  4013f8:	b9009bba 	str	w26, [x29, #152]
  4013fc:	b9405ae3 	ldr	w3, [x23, #88]
  401400:	92407f42 	and	x2, x26, #0xffffffff
  401404:	f9004ba2 	str	x2, [x29, #144]
  401408:	51000861 	sub	w1, w3, #0x2
  40140c:	b9406ae8 	ldr	w8, [x23, #104]
  401410:	f94032f5 	ldr	x21, [x23, #96]
  401414:	1ac10804 	udiv	w4, w0, w1
  401418:	1ac30802 	udiv	w2, w0, w3
  40141c:	1b018084 	msub	w4, w4, w1, w0
  401420:	11000499 	add	w25, w4, #0x1
  401424:	1b03805a 	msub	w26, w2, w3, w0
  401428:	4b19007b 	sub	w27, w3, w25
  40142c:	4b030336 	sub	w22, w25, w3
  401430:	14000018 	b	401490 <_nl_find_msg+0x110>
  401434:	b9401aea 	ldr	w10, [x23, #24]
  401438:	d37d7f80 	ubfiz	x0, x28, #3, #32
  40143c:	f9401ae1 	ldr	x1, [x23, #48]
  401440:	8b00002b 	add	x11, x1, x0
  401444:	b8606820 	ldr	w0, [x1, x0]
  401448:	34000c6a 	cbz	w10, 4015d4 <_nl_find_msg+0x254>
  40144c:	b9409ba1 	ldr	w1, [x29, #152]
  401450:	5ac00800 	rev	w0, w0
  401454:	6b00003f 	cmp	w1, w0
  401458:	54000148 	b.hi	401480 <_nl_find_msg+0x100>  // b.pmore
  40145c:	b9400560 	ldr	w0, [x11, #4]
  401460:	f94002e1 	ldr	x1, [x23]
  401464:	5ac00800 	rev	w0, w0
  401468:	8b000021 	add	x1, x1, x0
  40146c:	aa1803e0 	mov	x0, x24
  401470:	b9008ba8 	str	w8, [x29, #136]
  401474:	94006393 	bl	41a2c0 <strcmp>
  401478:	b9408ba8 	ldr	w8, [x29, #136]
  40147c:	34000360 	cbz	w0, 4014e8 <_nl_find_msg+0x168>
  401480:	6b1a037f 	cmp	w27, w26
  401484:	0b160340 	add	w0, w26, w22
  401488:	0b190342 	add	w2, w26, w25
  40148c:	1a80805a 	csel	w26, w2, w0, hi  // hi = pmore
  401490:	b87a5aa1 	ldr	w1, [x21, w26, uxtw #2]
  401494:	7100011f 	cmp	w8, #0x0
  401498:	5ac00820 	rev	w0, w1
  40149c:	1a811001 	csel	w1, w0, w1, ne  // ne = any
  4014a0:	34000761 	cbz	w1, 40158c <_nl_find_msg+0x20c>
  4014a4:	5100043c 	sub	w28, w1, #0x1
  4014a8:	6b1c027f 	cmp	w19, w28
  4014ac:	54fffc48 	b.hi	401434 <_nl_find_msg+0xb4>  // b.pmore
  4014b0:	4b130380 	sub	w0, w28, w19
  4014b4:	f94026e1 	ldr	x1, [x23, #72]
  4014b8:	d37cec00 	lsl	x0, x0, #4
  4014bc:	8b000026 	add	x6, x1, x0
  4014c0:	f8606820 	ldr	x0, [x1, x0]
  4014c4:	f9404ba1 	ldr	x1, [x29, #144]
  4014c8:	eb01001f 	cmp	x0, x1
  4014cc:	54fffda9 	b.ls	401480 <_nl_find_msg+0x100>  // b.plast
  4014d0:	f94004c1 	ldr	x1, [x6, #8]
  4014d4:	aa1803e0 	mov	x0, x24
  4014d8:	b9008ba8 	str	w8, [x29, #136]
  4014dc:	94006379 	bl	41a2c0 <strcmp>
  4014e0:	b9408ba8 	ldr	w8, [x29, #136]
  4014e4:	35fffce0 	cbnz	w0, 401480 <_nl_find_msg+0x100>
  4014e8:	aa1c03f6 	mov	x22, x28
  4014ec:	2a1303fa 	mov	w26, w19
  4014f0:	eb1a02df 	cmp	x22, x26
  4014f4:	54000803 	b.cc	4015f4 <_nl_find_msg+0x274>  // b.lo, b.ul, b.last
  4014f8:	cb1a02da 	sub	x26, x22, x26
  4014fc:	f9402ae0 	ldr	x0, [x23, #80]
  401500:	d37cef5a 	lsl	x26, x26, #4
  401504:	8b1a0001 	add	x1, x0, x26
  401508:	f87a6800 	ldr	x0, [x0, x26]
  40150c:	f9004fa0 	str	x0, [x29, #152]
  401510:	f9400438 	ldr	x24, [x1, #8]
  401514:	b9407fa0 	ldr	w0, [x29, #124]
  401518:	350008a0 	cbnz	w0, 40162c <_nl_find_msg+0x2ac>
  40151c:	f9403ba0 	ldr	x0, [x29, #112]
  401520:	f9404fa1 	ldr	x1, [x29, #152]
  401524:	f9000001 	str	x1, [x0]
  401528:	1400001a 	b	401590 <_nl_find_msg+0x210>
  40152c:	2a1303fa 	mov	w26, w19
  401530:	d280001b 	mov	x27, #0x0                   	// #0
  401534:	aa1a03fc 	mov	x28, x26
  401538:	eb1b039f 	cmp	x28, x27
  40153c:	54000289 	b.ls	40158c <_nl_find_msg+0x20c>  // b.plast
  401540:	8b1b0386 	add	x6, x28, x27
  401544:	b9401ae0 	ldr	w0, [x23, #24]
  401548:	f9401ae2 	ldr	x2, [x23, #48]
  40154c:	d341fcd6 	lsr	x22, x6, #1
  401550:	7100001f 	cmp	w0, #0x0
  401554:	aa1803e0 	mov	x0, x24
  401558:	f94002e1 	ldr	x1, [x23]
  40155c:	8b160c42 	add	x2, x2, x22, lsl #3
  401560:	b9400442 	ldr	w2, [x2, #4]
  401564:	5ac00843 	rev	w3, w2
  401568:	1a830042 	csel	w2, w2, w3, eq  // eq = none
  40156c:	8b020021 	add	x1, x1, x2
  401570:	94006354 	bl	41a2c0 <strcmp>
  401574:	7100001f 	cmp	w0, #0x0
  401578:	540002ab 	b.lt	4015cc <_nl_find_msg+0x24c>  // b.tstop
  40157c:	54fffba0 	b.eq	4014f0 <_nl_find_msg+0x170>  // b.none
  401580:	910006db 	add	x27, x22, #0x1
  401584:	eb1b039f 	cmp	x28, x27
  401588:	54fffdc8 	b.hi	401540 <_nl_find_msg+0x1c0>  // b.pmore
  40158c:	d2800018 	mov	x24, #0x0                   	// #0
  401590:	f945de94 	ldr	x20, [x20, #3000]
  401594:	f94067a0 	ldr	x0, [x29, #200]
  401598:	f9400281 	ldr	x1, [x20]
  40159c:	eb010000 	subs	x0, x0, x1
  4015a0:	d2800001 	mov	x1, #0x0                   	// #0
  4015a4:	540030c1 	b.ne	401bbc <_nl_find_msg+0x83c>  // b.any
  4015a8:	910003bf 	mov	sp, x29
  4015ac:	aa1803e0 	mov	x0, x24
  4015b0:	a94153f3 	ldp	x19, x20, [sp, #16]
  4015b4:	a9425bf5 	ldp	x21, x22, [sp, #32]
  4015b8:	a94363f7 	ldp	x23, x24, [sp, #48]
  4015bc:	a9446bf9 	ldp	x25, x26, [sp, #64]
  4015c0:	a94573fb 	ldp	x27, x28, [sp, #80]
  4015c4:	a8cd7bfd 	ldp	x29, x30, [sp], #208
  4015c8:	d65f03c0 	ret
  4015cc:	aa1603fc 	mov	x28, x22
  4015d0:	17ffffda 	b	401538 <_nl_find_msg+0x1b8>
  4015d4:	b9409ba1 	ldr	w1, [x29, #152]
  4015d8:	6b01001f 	cmp	w0, w1
  4015dc:	54fff523 	b.cc	401480 <_nl_find_msg+0x100>  // b.lo, b.ul, b.last
  4015e0:	b9400560 	ldr	w0, [x11, #4]
  4015e4:	f94002e1 	ldr	x1, [x23]
  4015e8:	17ffffa0 	b	401468 <_nl_find_msg+0xe8>
  4015ec:	9400040d 	bl	402620 <_nl_load_domain>
  4015f0:	17ffff77 	b	4013cc <_nl_find_msg+0x4c>
  4015f4:	f9401ee1 	ldr	x1, [x23, #56]
  4015f8:	d37df2c0 	lsl	x0, x22, #3
  4015fc:	b9401ae2 	ldr	w2, [x23, #24]
  401600:	8b000023 	add	x3, x1, x0
  401604:	b860683b 	ldr	w27, [x1, x0]
  401608:	f94002f8 	ldr	x24, [x23]
  40160c:	b9400460 	ldr	w0, [x3, #4]
  401610:	34000762 	cbz	w2, 4016fc <_nl_find_msg+0x37c>
  401614:	5ac00800 	rev	w0, w0
  401618:	5ac00b7b 	rev	w27, w27
  40161c:	8b000318 	add	x24, x24, x0
  401620:	11000760 	add	w0, w27, #0x1
  401624:	f9004fa0 	str	x0, [x29, #152]
  401628:	17ffffbb 	b	401514 <_nl_find_msg+0x194>
  40162c:	f94037a0 	ldr	x0, [x29, #104]
  401630:	b40004c0 	cbz	x0, 4016c8 <_nl_find_msg+0x348>
  401634:	f9400819 	ldr	x25, [x0, #16]
  401638:	b4000499 	cbz	x25, 4016c8 <_nl_find_msg+0x348>
  40163c:	f9464a80 	ldr	x0, [x20, #3216]
  401640:	b4000060 	cbz	x0, 40164c <_nl_find_msg+0x2cc>
  401644:	910202e0 	add	x0, x23, #0x80
  401648:	d503201f 	nop
  40164c:	f9403efb 	ldr	x27, [x23, #120]
  401650:	8b1b077c 	add	x28, x27, x27, lsl #1
  401654:	d37df39c 	lsl	x28, x28, #3
  401658:	d100639c 	sub	x28, x28, #0x18
  40165c:	d503201f 	nop
  401660:	b400057b 	cbz	x27, 40170c <_nl_find_msg+0x38c>
  401664:	f9403ae0 	ldr	x0, [x23, #112]
  401668:	d100077b 	sub	x27, x27, #0x1
  40166c:	aa1903e1 	mov	x1, x25
  401670:	8b1c001a 	add	x26, x0, x28
  401674:	f87c6800 	ldr	x0, [x0, x28]
  401678:	d100639c 	sub	x28, x28, #0x18
  40167c:	94006311 	bl	41a2c0 <strcmp>
  401680:	35ffff00 	cbnz	w0, 401660 <_nl_find_msg+0x2e0>
  401684:	f9466680 	ldr	x0, [x20, #3272]
  401688:	b4000060 	cbz	x0, 401694 <_nl_find_msg+0x314>
  40168c:	910202e0 	add	x0, x23, #0x80
  401690:	d503201f 	nop
  401694:	f9400740 	ldr	x0, [x26, #8]
  401698:	b100041f 	cmn	x0, #0x1
  40169c:	54fff400 	b.eq	40151c <_nl_find_msg+0x19c>  // b.none
  4016a0:	f9400b40 	ldr	x0, [x26, #16]
  4016a4:	b4001b80 	cbz	x0, 401a14 <_nl_find_msg+0x694>
  4016a8:	b100041f 	cmn	x0, #0x1
  4016ac:	54001b00 	b.eq	401a0c <_nl_find_msg+0x68c>  // b.none
  4016b0:	f8767800 	ldr	x0, [x0, x22, lsl #3]
  4016b4:	b40007a0 	cbz	x0, 4017a8 <_nl_find_msg+0x428>
  4016b8:	aa0003f8 	mov	x24, x0
  4016bc:	f8408700 	ldr	x0, [x24], #8
  4016c0:	f9004fa0 	str	x0, [x29, #152]
  4016c4:	17ffff96 	b	40151c <_nl_find_msg+0x19c>
  4016c8:	f000045c 	adrp	x28, 48c000 <object.0+0x28>
  4016cc:	9121a380 	add	x0, x28, #0x868
  4016d0:	b9401801 	ldr	w1, [x0, #24]
  4016d4:	340004e1 	cbz	w1, 401770 <_nl_find_msg+0x3f0>
  4016d8:	f9401019 	ldr	x25, [x0, #32]
  4016dc:	b5fffb19 	cbnz	x25, 40163c <_nl_find_msg+0x2bc>
  4016e0:	90000440 	adrp	x0, 489000 <_nl_C_LC_IDENTIFICATION+0xa8>
  4016e4:	f946c000 	ldr	x0, [x0, #3456]
  4016e8:	d53bd041 	mrs	x1, tpidr_el0
  4016ec:	f8606820 	ldr	x0, [x1, x0]
  4016f0:	f9400000 	ldr	x0, [x0]
  4016f4:	f9405819 	ldr	x25, [x0, #176]
  4016f8:	17ffffd1 	b	40163c <_nl_find_msg+0x2bc>
  4016fc:	8b204318 	add	x24, x24, w0, uxtw
  401700:	11000760 	add	w0, w27, #0x1
  401704:	f9004fa0 	str	x0, [x29, #152]
  401708:	17ffff83 	b	401514 <_nl_find_msg+0x194>
  40170c:	f9466680 	ldr	x0, [x20, #3272]
  401710:	b4000060 	cbz	x0, 40171c <_nl_find_msg+0x39c>
  401714:	910202e0 	add	x0, x23, #0x80
  401718:	d503201f 	nop
  40171c:	f9460680 	ldr	x0, [x20, #3080]
  401720:	b4000060 	cbz	x0, 40172c <_nl_find_msg+0x3ac>
  401724:	910202e0 	add	x0, x23, #0x80
  401728:	d503201f 	nop
  40172c:	a9470ae0 	ldp	x0, x2, [x23, #112]
  401730:	8b02045c 	add	x28, x2, x2, lsl #1
  401734:	aa0003fb 	mov	x27, x0
  401738:	d37df395 	lsl	x21, x28, #3
  40173c:	d10062a3 	sub	x3, x21, #0x18
  401740:	8b03001c 	add	x28, x0, x3
  401744:	d503201f 	nop
  401748:	b4000b22 	cbz	x2, 4018ac <_nl_find_msg+0x52c>
  40174c:	aa1c03fa 	mov	x26, x28
  401750:	d1000442 	sub	x2, x2, #0x1
  401754:	f85e8780 	ldr	x0, [x28], #-24
  401758:	aa1903e1 	mov	x1, x25
  40175c:	f9004ba2 	str	x2, [x29, #144]
  401760:	940062d8 	bl	41a2c0 <strcmp>
  401764:	f9404ba2 	ldr	x2, [x29, #144]
  401768:	35ffff00 	cbnz	w0, 401748 <_nl_find_msg+0x3c8>
  40176c:	17ffffc6 	b	401684 <_nl_find_msg+0x304>
  401770:	d0000280 	adrp	x0, 453000 <_IO_stdin_used+0xf0>
  401774:	9103e000 	add	x0, x0, #0xf8
  401778:	94001136 	bl	405c50 <getenv>
  40177c:	aa0003fa 	mov	x26, x0
  401780:	b4000060 	cbz	x0, 40178c <_nl_find_msg+0x40c>
  401784:	39400001 	ldrb	w1, [x0]
  401788:	35001821 	cbnz	w1, 401a8c <_nl_find_msg+0x70c>
  40178c:	9121a380 	add	x0, x28, #0x868
  401790:	f9401019 	ldr	x25, [x0, #32]
  401794:	9121a39c 	add	x28, x28, #0x868
  401798:	52800020 	mov	w0, #0x1                   	// #1
  40179c:	b9001b80 	str	w0, [x28, #24]
  4017a0:	b5fff4f9 	cbnz	x25, 40163c <_nl_find_msg+0x2bc>
  4017a4:	17ffffcf 	b	4016e0 <_nl_find_msg+0x360>
  4017a8:	f000045c 	adrp	x28, 48c000 <object.0+0x28>
  4017ac:	9121a393 	add	x19, x28, #0x868
  4017b0:	9100a273 	add	x19, x19, #0x28
  4017b4:	52800021 	mov	w1, #0x1                   	// #1
  4017b8:	aa1303e2 	mov	x2, x19
  4017bc:	94012de9 	bl	44cf60 <__aarch64_cas4_acq>
  4017c0:	35001ca0 	cbnz	w0, 401b54 <_nl_find_msg+0x7d4>
  4017c4:	9121a399 	add	x25, x28, #0x868
  4017c8:	9102a3a0 	add	x0, x29, #0xa8
  4017cc:	f9004ba0 	str	x0, [x29, #144]
  4017d0:	910283a0 	add	x0, x29, #0xa0
  4017d4:	f90047a0 	str	x0, [x29, #136]
  4017d8:	9102c3b7 	add	x23, x29, #0xb0
  4017dc:	f9401b20 	ldr	x0, [x25, #48]
  4017e0:	52800015 	mov	w21, #0x0                   	// #0
  4017e4:	f9401f21 	ldr	x1, [x25, #56]
  4017e8:	91002000 	add	x0, x0, #0x8
  4017ec:	f90053b8 	str	x24, [x29, #160]
  4017f0:	f90057a0 	str	x0, [x29, #168]
  4017f4:	d503201f 	nop
  4017f8:	f1001c3f 	cmp	x1, #0x7
  4017fc:	540001e9 	b.ls	401838 <_nl_find_msg+0x4b8>  // b.plast
  401800:	d1002024 	sub	x4, x1, #0x8
  401804:	aa1703e5 	mov	x5, x23
  401808:	a94907a3 	ldp	x3, x1, [x29, #144]
  40180c:	a94a27a2 	ldp	x2, x9, [x29, #160]
  401810:	f9400740 	ldr	x0, [x26, #8]
  401814:	8b010042 	add	x2, x2, x1
  401818:	8b040124 	add	x4, x9, x4
  40181c:	f94047a1 	ldr	x1, [x29, #136]
  401820:	9400878c 	bl	423650 <__gconv>
  401824:	721d781f 	tst	w0, #0xfffffffb
  401828:	54001680 	b.eq	401af8 <_nl_find_msg+0x778>  // b.none
  40182c:	7100141f 	cmp	w0, #0x5
  401830:	54001521 	b.ne	401ad4 <_nl_find_msg+0x754>  // b.any
  401834:	f90053b8 	str	x24, [x29, #160]
  401838:	34000275 	cbz	w21, 401884 <_nl_find_msg+0x504>
  40183c:	110006b5 	add	w21, w21, #0x1
  401840:	f9400b33 	ldr	x19, [x25, #16]
  401844:	53185ea1 	lsl	w1, w21, #8
  401848:	4b150021 	sub	w1, w1, w21
  40184c:	aa1303e0 	mov	x0, x19
  401850:	531c6c21 	lsl	w1, w1, #4
  401854:	93407c3b 	sxtw	x27, w1
  401858:	f9001f3b 	str	x27, [x25, #56]
  40185c:	aa1b03e1 	mov	x1, x27
  401860:	94005d84 	bl	418e70 <__libc_realloc>
  401864:	b4000ac0 	cbz	x0, 4019bc <_nl_find_msg+0x63c>
  401868:	d1002361 	sub	x1, x27, #0x8
  40186c:	f9000b20 	str	x0, [x25, #16]
  401870:	91002002 	add	x2, x0, #0x8
  401874:	91004000 	add	x0, x0, #0x10
  401878:	a9030722 	stp	x2, x1, [x25, #48]
  40187c:	f90057a0 	str	x0, [x29, #168]
  401880:	17ffffde 	b	4017f8 <_nl_find_msg+0x478>
  401884:	d281fe00 	mov	x0, #0xff0                 	// #4080
  401888:	f9001f20 	str	x0, [x25, #56]
  40188c:	94005b81 	bl	418690 <__libc_malloc>
  401890:	b40009e0 	cbz	x0, 4019cc <_nl_find_msg+0x64c>
  401894:	f9400b22 	ldr	x2, [x25, #16]
  401898:	d281fd01 	mov	x1, #0xfe8                 	// #4072
  40189c:	52800035 	mov	w21, #0x1                   	// #1
  4018a0:	f9000002 	str	x2, [x0]
  4018a4:	f9000b20 	str	x0, [x25, #16]
  4018a8:	17fffff2 	b	401870 <_nl_find_msg+0x4f0>
  4018ac:	910062a1 	add	x1, x21, #0x18
  4018b0:	aa1b03e0 	mov	x0, x27
  4018b4:	b4000e5b 	cbz	x27, 401a7c <_nl_find_msg+0x6fc>
  4018b8:	94005d6e 	bl	418e70 <__libc_realloc>
  4018bc:	aa0003e1 	mov	x1, x0
  4018c0:	b4000fe1 	cbz	x1, 401abc <_nl_find_msg+0x73c>
  4018c4:	f9003ae1 	str	x1, [x23, #112]
  4018c8:	aa1903e0 	mov	x0, x25
  4018cc:	f9004ba1 	str	x1, [x29, #144]
  4018d0:	9400637c 	bl	41a6c0 <__strdup>
  4018d4:	aa0003f9 	mov	x25, x0
  4018d8:	b4000f20 	cbz	x0, 401abc <_nl_find_msg+0x73c>
  4018dc:	f9404ba1 	ldr	x1, [x29, #144]
  4018e0:	9280001c 	mov	x28, #0xffffffffffffffff    	// #-1
  4018e4:	f94043a0 	ldr	x0, [x29, #128]
  4018e8:	8b15003a 	add	x26, x1, x21
  4018ec:	f8356839 	str	x25, [x1, x21]
  4018f0:	9102a3a4 	add	x4, x29, #0xa8
  4018f4:	f94037a1 	ldr	x1, [x29, #104]
  4018f8:	f900075c 	str	x28, [x26, #8]
  4018fc:	d0000282 	adrp	x2, 453000 <_IO_stdin_used+0xf0>
  401900:	52800003 	mov	w3, #0x0                   	// #0
  401904:	911ba042 	add	x2, x2, #0x6e8
  401908:	97fffe9e 	bl	401380 <_nl_find_msg>
  40190c:	aa0003e1 	mov	x1, x0
  401910:	eb1c001f 	cmp	x0, x28
  401914:	540014a0 	b.eq	401ba8 <_nl_find_msg+0x828>  // b.none
  401918:	b4000480 	cbz	x0, 4019a8 <_nl_find_msg+0x628>
  40191c:	d0000281 	adrp	x1, 453000 <_IO_stdin_used+0xf0>
  401920:	91042021 	add	x1, x1, #0x108
  401924:	94006607 	bl	41b140 <strstr>
  401928:	b4000400 	cbz	x0, 4019a8 <_nl_find_msg+0x628>
  40192c:	91002015 	add	x21, x0, #0x8
  401930:	d0000281 	adrp	x1, 453000 <_IO_stdin_used+0xf0>
  401934:	aa1503e0 	mov	x0, x21
  401938:	91046021 	add	x1, x1, #0x118
  40193c:	94006305 	bl	41a550 <strcspn>
  401940:	aa0003fb 	mov	x27, x0
  401944:	91004000 	add	x0, x0, #0x10
  401948:	aa1503e1 	mov	x1, x21
  40194c:	927cec00 	and	x0, x0, #0xfffffffffffffff0
  401950:	aa1b03e2 	mov	x2, x27
  401954:	cb2063ff 	sub	sp, sp, x0
  401958:	9102c3b5 	add	x21, x29, #0xb0
  40195c:	910003e3 	mov	x3, sp
  401960:	aa0303e0 	mov	x0, x3
  401964:	97fffa53 	bl	4002b0 <.plt+0x10>
  401968:	aa0003e3 	mov	x3, x0
  40196c:	aa0003e1 	mov	x1, x0
  401970:	aa1903e2 	mov	x2, x25
  401974:	aa1503e0 	mov	x0, x21
  401978:	383b687f 	strb	wzr, [x3, x27]
  40197c:	9400ab69 	bl	42c720 <__gconv_create_spec>
  401980:	52800023 	mov	w3, #0x1                   	// #1
  401984:	91002341 	add	x1, x26, #0x8
  401988:	52800022 	mov	w2, #0x1                   	// #1
  40198c:	aa1503e0 	mov	x0, x21
  401990:	390303a3 	strb	w3, [x29, #192]
  401994:	9400865f 	bl	423310 <__gconv_open>
  401998:	2a0003fb 	mov	w27, w0
  40199c:	aa1503e0 	mov	x0, x21
  4019a0:	9400ac14 	bl	42c9f0 <__gconv_destroy_spec>
  4019a4:	35000f1b 	cbnz	w27, 401b84 <_nl_find_msg+0x804>
  4019a8:	f9403ee0 	ldr	x0, [x23, #120]
  4019ac:	f9000b5f 	str	xzr, [x26, #16]
  4019b0:	91000400 	add	x0, x0, #0x1
  4019b4:	f9003ee0 	str	x0, [x23, #120]
  4019b8:	17ffff33 	b	401684 <_nl_find_msg+0x304>
  4019bc:	f9400261 	ldr	x1, [x19]
  4019c0:	aa1303e0 	mov	x0, x19
  4019c4:	f9000b21 	str	x1, [x25, #16]
  4019c8:	94005ca2 	bl	418c50 <__free>
  4019cc:	9121a39c 	add	x28, x28, #0x868
  4019d0:	52800000 	mov	w0, #0x0                   	// #0
  4019d4:	9100a393 	add	x19, x28, #0x28
  4019d8:	92800018 	mov	x24, #0xffffffffffffffff    	// #-1
  4019dc:	aa1303e1 	mov	x1, x19
  4019e0:	a9037f9f 	stp	xzr, xzr, [x28, #48]
  4019e4:	94012dbf 	bl	44d0e0 <__aarch64_swp4_rel>
  4019e8:	7100041f 	cmp	w0, #0x1
  4019ec:	54ffdd2d 	b.le	401590 <_nl_find_msg+0x210>
  4019f0:	aa1303e0 	mov	x0, x19
  4019f4:	d2801021 	mov	x1, #0x81                  	// #129
  4019f8:	d2800022 	mov	x2, #0x1                   	// #1
  4019fc:	d2800003 	mov	x3, #0x0                   	// #0
  401a00:	d2800c48 	mov	x8, #0x62                  	// #98
  401a04:	d4000001 	svc	#0x0
  401a08:	17fffee2 	b	401590 <_nl_find_msg+0x210>
  401a0c:	92800018 	mov	x24, #0xffffffffffffffff    	// #-1
  401a10:	17fffee0 	b	401590 <_nl_find_msg+0x210>
  401a14:	f000045c 	adrp	x28, 48c000 <object.0+0x28>
  401a18:	9121a395 	add	x21, x28, #0x868
  401a1c:	9100a2b5 	add	x21, x21, #0x28
  401a20:	52800021 	mov	w1, #0x1                   	// #1
  401a24:	aa1503e2 	mov	x2, x21
  401a28:	94012d4e 	bl	44cf60 <__aarch64_cas4_acq>
  401a2c:	35000c20 	cbnz	w0, 401bb0 <_nl_find_msg+0x830>
  401a30:	f9400b40 	ldr	x0, [x26, #16]
  401a34:	b4000960 	cbz	x0, 401b60 <_nl_find_msg+0x7e0>
  401a38:	9121a393 	add	x19, x28, #0x868
  401a3c:	52800000 	mov	w0, #0x0                   	// #0
  401a40:	9100a273 	add	x19, x19, #0x28
  401a44:	aa1303e1 	mov	x1, x19
  401a48:	94012da6 	bl	44d0e0 <__aarch64_swp4_rel>
  401a4c:	7100041f 	cmp	w0, #0x1
  401a50:	5400006c 	b.gt	401a5c <_nl_find_msg+0x6dc>
  401a54:	f9400b40 	ldr	x0, [x26, #16]
  401a58:	17ffff14 	b	4016a8 <_nl_find_msg+0x328>
  401a5c:	aa1303e0 	mov	x0, x19
  401a60:	d2801021 	mov	x1, #0x81                  	// #129
  401a64:	d2800022 	mov	x2, #0x1                   	// #1
  401a68:	d2800003 	mov	x3, #0x0                   	// #0
  401a6c:	d2800c48 	mov	x8, #0x62                  	// #98
  401a70:	d4000001 	svc	#0x0
  401a74:	f9400b40 	ldr	x0, [x26, #16]
  401a78:	17ffff0c 	b	4016a8 <_nl_find_msg+0x328>
  401a7c:	aa0103e0 	mov	x0, x1
  401a80:	94005b04 	bl	418690 <__libc_malloc>
  401a84:	aa0003e1 	mov	x1, x0
  401a88:	17ffff8e 	b	4018c0 <_nl_find_msg+0x540>
  401a8c:	97fffa1d 	bl	400300 <.plt+0x60>
  401a90:	9100041b 	add	x27, x0, #0x1
  401a94:	aa1b03e0 	mov	x0, x27
  401a98:	94005afe 	bl	418690 <__libc_malloc>
  401a9c:	aa0003f9 	mov	x25, x0
  401aa0:	b4000080 	cbz	x0, 401ab0 <_nl_find_msg+0x730>
  401aa4:	aa1b03e2 	mov	x2, x27
  401aa8:	aa1a03e1 	mov	x1, x26
  401aac:	97fffa01 	bl	4002b0 <.plt+0x10>
  401ab0:	9121a380 	add	x0, x28, #0x868
  401ab4:	f9001019 	str	x25, [x0, #32]
  401ab8:	17ffff37 	b	401794 <_nl_find_msg+0x414>
  401abc:	f9466680 	ldr	x0, [x20, #3272]
  401ac0:	b4fffa60 	cbz	x0, 401a0c <_nl_find_msg+0x68c>
  401ac4:	910202e0 	add	x0, x23, #0x80
  401ac8:	92800018 	mov	x24, #0xffffffffffffffff    	// #-1
  401acc:	d503201f 	nop
  401ad0:	17fffeb0 	b	401590 <_nl_find_msg+0x210>
  401ad4:	9121a393 	add	x19, x28, #0x868
  401ad8:	52800000 	mov	w0, #0x0                   	// #0
  401adc:	9100a273 	add	x19, x19, #0x28
  401ae0:	d2800018 	mov	x24, #0x0                   	// #0
  401ae4:	aa1303e1 	mov	x1, x19
  401ae8:	94012d7e 	bl	44d0e0 <__aarch64_swp4_rel>
  401aec:	7100041f 	cmp	w0, #0x1
  401af0:	54ffd50d 	b.le	401590 <_nl_find_msg+0x210>
  401af4:	17ffffbf 	b	4019f0 <_nl_find_msg+0x670>
  401af8:	9121a39c 	add	x28, x28, #0x868
  401afc:	d37df2d5 	lsl	x21, x22, #3
  401b00:	f94057a3 	ldr	x3, [x29, #168]
  401b04:	9100a393 	add	x19, x28, #0x28
  401b08:	a9430b84 	ldp	x4, x2, [x28, #48]
  401b0c:	aa1303e1 	mov	x1, x19
  401b10:	f9400b47 	ldr	x7, [x26, #16]
  401b14:	52800000 	mov	w0, #0x0                   	// #0
  401b18:	cb040065 	sub	x5, x3, x4
  401b1c:	cb050042 	sub	x2, x2, x5
  401b20:	d10020a8 	sub	x8, x5, #0x8
  401b24:	f9000088 	str	x8, [x4]
  401b28:	f83678e4 	str	x4, [x7, x22, lsl #3]
  401b2c:	92400844 	and	x4, x2, #0x7
  401b30:	8b040063 	add	x3, x3, x4
  401b34:	927df042 	and	x2, x2, #0xfffffffffffffff8
  401b38:	a9030b83 	stp	x3, x2, [x28, #48]
  401b3c:	94012d69 	bl	44d0e0 <__aarch64_swp4_rel>
  401b40:	7100041f 	cmp	w0, #0x1
  401b44:	540003ec 	b.gt	401bc0 <_nl_find_msg+0x840>
  401b48:	f9400b40 	ldr	x0, [x26, #16]
  401b4c:	f8756800 	ldr	x0, [x0, x21]
  401b50:	17fffeda 	b	4016b8 <_nl_find_msg+0x338>
  401b54:	aa1303e0 	mov	x0, x19
  401b58:	940048e2 	bl	413ee0 <__lll_lock_wait_private>
  401b5c:	17ffff1a 	b	4017c4 <_nl_find_msg+0x444>
  401b60:	b94042e0 	ldr	w0, [x23, #64]
  401b64:	d2800101 	mov	x1, #0x8                   	// #8
  401b68:	0b000260 	add	w0, w19, w0
  401b6c:	94005de1 	bl	4192f0 <__calloc>
  401b70:	f9000b40 	str	x0, [x26, #16]
  401b74:	b5ffe280 	cbnz	x0, 4017c4 <_nl_find_msg+0x444>
  401b78:	92800000 	mov	x0, #0xffffffffffffffff    	// #-1
  401b7c:	f9000b40 	str	x0, [x26, #16]
  401b80:	17ffffae 	b	401a38 <_nl_find_msg+0x6b8>
  401b84:	3100077f 	cmn	w27, #0x1
  401b88:	540002a0 	b.eq	401bdc <_nl_find_msg+0x85c>  // b.none
  401b8c:	f9466680 	ldr	x0, [x20, #3272]
  401b90:	b4000060 	cbz	x0, 401b9c <_nl_find_msg+0x81c>
  401b94:	910202e0 	add	x0, x23, #0x80
  401b98:	d503201f 	nop
  401b9c:	aa1903e0 	mov	x0, x25
  401ba0:	94005c2c 	bl	418c50 <__free>
  401ba4:	d2800001 	mov	x1, #0x0                   	// #0
  401ba8:	aa0103f8 	mov	x24, x1
  401bac:	17fffe79 	b	401590 <_nl_find_msg+0x210>
  401bb0:	aa1503e0 	mov	x0, x21
  401bb4:	940048cb 	bl	413ee0 <__lll_lock_wait_private>
  401bb8:	17ffff9e 	b	401a30 <_nl_find_msg+0x6b0>
  401bbc:	94007cfd 	bl	420fb0 <__stack_chk_fail>
  401bc0:	aa1303e0 	mov	x0, x19
  401bc4:	d2801021 	mov	x1, #0x81                  	// #129
  401bc8:	d2800022 	mov	x2, #0x1                   	// #1
  401bcc:	d2800003 	mov	x3, #0x0                   	// #0
  401bd0:	d2800c48 	mov	x8, #0x62                  	// #98
  401bd4:	d4000001 	svc	#0x0
  401bd8:	17ffffdc 	b	401b48 <_nl_find_msg+0x7c8>
  401bdc:	f900075c 	str	x28, [x26, #8]
  401be0:	17ffff72 	b	4019a8 <_nl_find_msg+0x628>

0000000000401be4 <__dcigettext>:
  401be4:	a9ac7bfd 	stp	x29, x30, [sp, #-320]!
  401be8:	910003fd 	mov	x29, sp
  401bec:	a90153f3 	stp	x19, x20, [sp, #16]
  401bf0:	90000454 	adrp	x20, 489000 <_nl_C_LC_IDENTIFICATION+0xa8>
  401bf4:	f945de86 	ldr	x6, [x20, #3000]
  401bf8:	a9025bf5 	stp	x21, x22, [sp, #32]
  401bfc:	aa0103f6 	mov	x22, x1
  401c00:	a90363f7 	stp	x23, x24, [sp, #48]
  401c04:	a9046bf9 	stp	x25, x26, [sp, #64]
  401c08:	a90573fb 	stp	x27, x28, [sp, #80]
  401c0c:	f94000c7 	ldr	x7, [x6]
  401c10:	f9009fa7 	str	x7, [x29, #312]
  401c14:	d2800007 	mov	x7, #0x0                   	// #0
  401c18:	a90b93a2 	stp	x2, x4, [x29, #184]
  401c1c:	291917a3 	stp	w3, w5, [x29, #200]
  401c20:	f90077bf 	str	xzr, [x29, #232]
  401c24:	b4002581 	cbz	x1, 4020d4 <__dcigettext+0x4f0>
  401c28:	710030bf 	cmp	w5, #0xc
  401c2c:	7a4698a4 	ccmp	w5, #0x6, #0x4, ls  // ls = plast
  401c30:	54001ac0 	b.eq	401f88 <__dcigettext+0x3a4>  // b.none
  401c34:	90000441 	adrp	x1, 489000 <_nl_C_LC_IDENTIFICATION+0xa8>
  401c38:	f946e821 	ldr	x1, [x1, #3536]
  401c3c:	d53bd042 	mrs	x2, tpidr_el0
  401c40:	aa0003f5 	mov	x21, x0
  401c44:	a90987a2 	stp	x2, x1, [x29, #152]
  401c48:	f9464a80 	ldr	x0, [x20, #3216]
  401c4c:	b8616841 	ldr	w1, [x2, x1]
  401c50:	b900afa1 	str	w1, [x29, #172]
  401c54:	b4000080 	cbz	x0, 401c64 <__dcigettext+0x80>
  401c58:	90000460 	adrp	x0, 48d000 <known_derivations>
  401c5c:	91014000 	add	x0, x0, #0x50
  401c60:	d503201f 	nop
  401c64:	f9464a80 	ldr	x0, [x20, #3216]
  401c68:	f0000441 	adrp	x1, 48c000 <object.0+0x28>
  401c6c:	f9006fa1 	str	x1, [x29, #216]
  401c70:	b4000080 	cbz	x0, 401c80 <__dcigettext+0x9c>
  401c74:	9121a020 	add	x0, x1, #0x868
  401c78:	91010000 	add	x0, x0, #0x40
  401c7c:	d503201f 	nop
  401c80:	b0000441 	adrp	x1, 48a000 <_GLOBAL_OFFSET_TABLE_+0x498>
  401c84:	b940cfa0 	ldr	w0, [x29, #204]
  401c88:	f10002bf 	cmp	x21, #0x0
  401c8c:	b90103a0 	str	w0, [x29, #256]
  401c90:	f9402421 	ldr	x1, [x1, #72]
  401c94:	f9008fbf 	str	xzr, [x29, #280]
  401c98:	f9009bb6 	str	x22, [x29, #304]
  401c9c:	9a950035 	csel	x21, x1, x21, eq  // eq = none
  401ca0:	f9007fb5 	str	x21, [x29, #248]
  401ca4:	9400b237 	bl	42e580 <__current_locale_name>
  401ca8:	f9004ba0 	str	x0, [x29, #144]
  401cac:	f9464a82 	ldr	x2, [x20, #3216]
  401cb0:	f90087a0 	str	x0, [x29, #264]
  401cb4:	b40000a2 	cbz	x2, 401cc8 <__dcigettext+0xe4>
  401cb8:	f9406fa0 	ldr	x0, [x29, #216]
  401cbc:	9121a000 	add	x0, x0, #0x868
  401cc0:	9101e000 	add	x0, x0, #0x78
  401cc4:	d503201f 	nop
  401cc8:	f9406fa0 	ldr	x0, [x29, #216]
  401ccc:	9121a013 	add	x19, x0, #0x868
  401cd0:	90000000 	adrp	x0, 401000 <__assert_fail_base+0xf0>
  401cd4:	91002261 	add	x1, x19, #0x8
  401cd8:	910c0002 	add	x2, x0, #0x300
  401cdc:	f90047a0 	str	x0, [x29, #136]
  401ce0:	9103e3a0 	add	x0, x29, #0xf8
  401ce4:	9400785f 	bl	41fe60 <__tfind>
  401ce8:	f9005ba0 	str	x0, [x29, #176]
  401cec:	f9466681 	ldr	x1, [x20, #3272]
  401cf0:	b4000061 	cbz	x1, 401cfc <__dcigettext+0x118>
  401cf4:	9101e260 	add	x0, x19, #0x78
  401cf8:	d503201f 	nop
  401cfc:	f9405ba2 	ldr	x2, [x29, #176]
  401d00:	b40000e2 	cbz	x2, 401d1c <__dcigettext+0x138>
  401d04:	f9462e80 	ldr	x0, [x20, #3160]
  401d08:	f9400042 	ldr	x2, [x2]
  401d0c:	b9400000 	ldr	w0, [x0]
  401d10:	b9401841 	ldr	w1, [x2, #24]
  401d14:	6b00003f 	cmp	w1, w0
  401d18:	54001aa0 	b.eq	40206c <__dcigettext+0x488>  // b.none
  401d1c:	f9406fa0 	ldr	x0, [x29, #216]
  401d20:	f9443413 	ldr	x19, [x0, #2152]
  401d24:	b5000ff3 	cbnz	x19, 401f20 <__dcigettext+0x33c>
  401d28:	d0000298 	adrp	x24, 453000 <_IO_stdin_used+0xf0>
  401d2c:	91050318 	add	x24, x24, #0x140
  401d30:	b940cfa0 	ldr	w0, [x29, #204]
  401d34:	b00002a2 	adrp	x2, 456000 <builtin_aliases+0x128>
  401d38:	91250042 	add	x2, x2, #0x940
  401d3c:	b00002b9 	adrp	x25, 456000 <builtin_aliases+0x128>
  401d40:	9122c321 	add	x1, x25, #0x8b0
  401d44:	3860c859 	ldrb	w25, [x2, w0, sxtw]
  401d48:	8b010339 	add	x25, x25, x1
  401d4c:	9400b20d 	bl	42e580 <__current_locale_name>
  401d50:	aa0003f7 	mov	x23, x0
  401d54:	39400000 	ldrb	w0, [x0]
  401d58:	71010c1f 	cmp	w0, #0x43
  401d5c:	54001221 	b.ne	401fa0 <__dcigettext+0x3bc>  // b.any
  401d60:	394006e0 	ldrb	w0, [x23, #1]
  401d64:	350011e0 	cbnz	w0, 401fa0 <__dcigettext+0x3bc>
  401d68:	aa1503e0 	mov	x0, x21
  401d6c:	97fff965 	bl	400300 <.plt+0x60>
  401d70:	aa0003e1 	mov	x1, x0
  401d74:	aa1903e0 	mov	x0, x25
  401d78:	aa0103fa 	mov	x26, x1
  401d7c:	f90043a1 	str	x1, [x29, #128]
  401d80:	97fff960 	bl	400300 <.plt+0x60>
  401d84:	8b1a0000 	add	x0, x0, x26
  401d88:	9100eb42 	add	x2, x26, #0x3a
  401d8c:	91005000 	add	x0, x0, #0x14
  401d90:	927cec00 	and	x0, x0, #0xfffffffffffffff0
  401d94:	f9003fa2 	str	x2, [x29, #120]
  401d98:	9103c3a2 	add	x2, x29, #0xf0
  401d9c:	cb2063ff 	sub	sp, sp, x0
  401da0:	aa1903e1 	mov	x1, x25
  401da4:	aa1a03f9 	mov	x25, x26
  401da8:	910003fa 	mov	x26, sp
  401dac:	f9006ba2 	str	x2, [x29, #208]
  401db0:	aa1a03e0 	mov	x0, x26
  401db4:	94006683 	bl	41b7c0 <__stpcpy>
  401db8:	528005e3 	mov	w3, #0x2f                  	// #47
  401dbc:	38001403 	strb	w3, [x0], #1
  401dc0:	aa1503e1 	mov	x1, x21
  401dc4:	aa1903e2 	mov	x2, x25
  401dc8:	97fff93a 	bl	4002b0 <.plt+0x10>
  401dcc:	aa0003e1 	mov	x1, x0
  401dd0:	528da5c2 	mov	w2, #0x6d2e                	// #27950
  401dd4:	aa1703e0 	mov	x0, x23
  401dd8:	72a00de2 	movk	w2, #0x6f, lsl #16
  401ddc:	b8396822 	str	w2, [x1, x25]
  401de0:	d0000299 	adrp	x25, 453000 <_IO_stdin_used+0xf0>
  401de4:	9104e339 	add	x25, x25, #0x138
  401de8:	97fff946 	bl	400300 <.plt+0x60>
  401dec:	91004000 	add	x0, x0, #0x10
  401df0:	927cec00 	and	x0, x0, #0xfffffffffffffff0
  401df4:	cb2063ff 	sub	sp, sp, x0
  401df8:	910003fb 	mov	x27, sp
  401dfc:	aa1b03fc 	mov	x28, x27
  401e00:	394002e0 	ldrb	w0, [x23]
  401e04:	7100e81f 	cmp	w0, #0x3a
  401e08:	54000dc0 	b.eq	401fc0 <__dcigettext+0x3dc>  // b.none
  401e0c:	35000de0 	cbnz	w0, 401fc8 <__dcigettext+0x3e4>
  401e10:	52800860 	mov	w0, #0x43                  	// #67
  401e14:	79000380 	strh	w0, [x28]
  401e18:	39400380 	ldrb	w0, [x28]
  401e1c:	71010c1f 	cmp	w0, #0x43
  401e20:	54000061 	b.ne	401e2c <__dcigettext+0x248>  // b.any
  401e24:	39400780 	ldrb	w0, [x28, #1]
  401e28:	340002c0 	cbz	w0, 401e80 <__dcigettext+0x29c>
  401e2c:	aa1903e1 	mov	x1, x25
  401e30:	aa1c03e0 	mov	x0, x28
  401e34:	94006123 	bl	41a2c0 <strcmp>
  401e38:	34000240 	cbz	w0, 401e80 <__dcigettext+0x29c>
  401e3c:	aa1303e3 	mov	x3, x19
  401e40:	aa1a03e2 	mov	x2, x26
  401e44:	aa1c03e1 	mov	x1, x28
  401e48:	aa1803e0 	mov	x0, x24
  401e4c:	94000151 	bl	402390 <_nl_find_domain>
  401e50:	aa0003fb 	mov	x27, x0
  401e54:	b4fffd60 	cbz	x0, 401e00 <__dcigettext+0x21c>
  401e58:	f9406ba4 	ldr	x4, [x29, #208]
  401e5c:	52800023 	mov	w3, #0x1                   	// #1
  401e60:	aa1603e2 	mov	x2, x22
  401e64:	aa1303e1 	mov	x1, x19
  401e68:	97fffd46 	bl	401380 <_nl_find_msg>
  401e6c:	aa0003e3 	mov	x3, x0
  401e70:	b4000cc0 	cbz	x0, 402008 <__dcigettext+0x424>
  401e74:	aa1b03fc 	mov	x28, x27
  401e78:	b100041f 	cmn	x0, #0x1
  401e7c:	540013a1 	b.ne	4020f0 <__dcigettext+0x50c>  // b.any
  401e80:	f94077a0 	ldr	x0, [x29, #232]
  401e84:	94005b73 	bl	418c50 <__free>
  401e88:	f9466680 	ldr	x0, [x20, #3272]
  401e8c:	b40000a0 	cbz	x0, 401ea0 <__dcigettext+0x2bc>
  401e90:	f9406fa0 	ldr	x0, [x29, #216]
  401e94:	9121a000 	add	x0, x0, #0x868
  401e98:	91010000 	add	x0, x0, #0x40
  401e9c:	d503201f 	nop
  401ea0:	f9466680 	ldr	x0, [x20, #3272]
  401ea4:	b4000080 	cbz	x0, 401eb4 <__dcigettext+0x2d0>
  401ea8:	90000460 	adrp	x0, 48d000 <known_derivations>
  401eac:	91014000 	add	x0, x0, #0x50
  401eb0:	d503201f 	nop
  401eb4:	a94987a0 	ldp	x0, x1, [x29, #152]
  401eb8:	b940afa2 	ldr	w2, [x29, #172]
  401ebc:	b8216802 	str	w2, [x0, x1]
  401ec0:	b940cba0 	ldr	w0, [x29, #200]
  401ec4:	7100001f 	cmp	w0, #0x0
  401ec8:	f94063a0 	ldr	x0, [x29, #192]
  401ecc:	fa411804 	ccmp	x0, #0x1, #0x4, ne  // ne = any
  401ed0:	54000641 	b.ne	401f98 <__dcigettext+0x3b4>  // b.any
  401ed4:	aa1603e3 	mov	x3, x22
  401ed8:	f945de94 	ldr	x20, [x20, #3000]
  401edc:	f9409fa0 	ldr	x0, [x29, #312]
  401ee0:	f9400281 	ldr	x1, [x20]
  401ee4:	eb010000 	subs	x0, x0, x1
  401ee8:	d2800001 	mov	x1, #0x0                   	// #0
  401eec:	54002461 	b.ne	402378 <__dcigettext+0x794>  // b.any
  401ef0:	910003bf 	mov	sp, x29
  401ef4:	aa0303e0 	mov	x0, x3
  401ef8:	a94153f3 	ldp	x19, x20, [sp, #16]
  401efc:	a9425bf5 	ldp	x21, x22, [sp, #32]
  401f00:	a94363f7 	ldp	x23, x24, [sp, #48]
  401f04:	a9446bf9 	ldp	x25, x26, [sp, #64]
  401f08:	a94573fb 	ldp	x27, x28, [sp, #80]
  401f0c:	a8d47bfd 	ldp	x29, x30, [sp], #320
  401f10:	d65f03c0 	ret
  401f14:	54000d8b 	b.lt	4020c4 <__dcigettext+0x4e0>  // b.tstop
  401f18:	f9400273 	ldr	x19, [x19]
  401f1c:	b4fff073 	cbz	x19, 401d28 <__dcigettext+0x144>
  401f20:	91006261 	add	x1, x19, #0x18
  401f24:	aa1503e0 	mov	x0, x21
  401f28:	940060e6 	bl	41a2c0 <strcmp>
  401f2c:	7100001f 	cmp	w0, #0x0
  401f30:	35ffff20 	cbnz	w0, 401f14 <__dcigettext+0x330>
  401f34:	f9400678 	ldr	x24, [x19, #8]
  401f38:	39400300 	ldrb	w0, [x24]
  401f3c:	7100bc1f 	cmp	w0, #0x2f
  401f40:	54ffef80 	b.eq	401d30 <__dcigettext+0x14c>  // b.none
  401f44:	d2800001 	mov	x1, #0x0                   	// #0
  401f48:	d2800000 	mov	x0, #0x0                   	// #0
  401f4c:	94007331 	bl	41ec10 <__getcwd>
  401f50:	aa0003f9 	mov	x25, x0
  401f54:	b4fff960 	cbz	x0, 401e80 <__dcigettext+0x29c>
  401f58:	aa1803e3 	mov	x3, x24
  401f5c:	aa0003e2 	mov	x2, x0
  401f60:	d0000281 	adrp	x1, 453000 <_IO_stdin_used+0xf0>
  401f64:	91048021 	add	x1, x1, #0x120
  401f68:	9103a3a0 	add	x0, x29, #0xe8
  401f6c:	94001281 	bl	406970 <___asprintf>
  401f70:	2a0003f8 	mov	w24, w0
  401f74:	aa1903e0 	mov	x0, x25
  401f78:	94005b36 	bl	418c50 <__free>
  401f7c:	37fff838 	tbnz	w24, #31, 401e80 <__dcigettext+0x29c>
  401f80:	f94077b8 	ldr	x24, [x29, #232]
  401f84:	17ffff6b 	b	401d30 <__dcigettext+0x14c>
  401f88:	2a0303e0 	mov	w0, w3
  401f8c:	7100001f 	cmp	w0, #0x0
  401f90:	fa411884 	ccmp	x4, #0x1, #0x4, ne  // ne = any
  401f94:	54fffa00 	b.eq	401ed4 <__dcigettext+0x2f0>  // b.none
  401f98:	f9405fa3 	ldr	x3, [x29, #184]
  401f9c:	17ffffcf 	b	401ed8 <__dcigettext+0x2f4>
  401fa0:	d0000280 	adrp	x0, 453000 <_IO_stdin_used+0xf0>
  401fa4:	9104a000 	add	x0, x0, #0x128
  401fa8:	94000f2a 	bl	405c50 <getenv>
  401fac:	b4ffede0 	cbz	x0, 401d68 <__dcigettext+0x184>
  401fb0:	39400001 	ldrb	w1, [x0]
  401fb4:	7100003f 	cmp	w1, #0x0
  401fb8:	9a8002f7 	csel	x23, x23, x0, eq  // eq = none
  401fbc:	17ffff6b 	b	401d68 <__dcigettext+0x184>
  401fc0:	910006f7 	add	x23, x23, #0x1
  401fc4:	17ffff8f 	b	401e00 <__dcigettext+0x21c>
  401fc8:	aa1c03e1 	mov	x1, x28
  401fcc:	d503201f 	nop
  401fd0:	38001420 	strb	w0, [x1], #1
  401fd4:	38401ee0 	ldrb	w0, [x23, #1]!
  401fd8:	7100e81f 	cmp	w0, #0x3a
  401fdc:	7a401804 	ccmp	w0, #0x0, #0x4, ne  // ne = any
  401fe0:	54ffff81 	b.ne	401fd0 <__dcigettext+0x3ec>  // b.any
  401fe4:	f9468e80 	ldr	x0, [x20, #3352]
  401fe8:	3900003f 	strb	wzr, [x1]
  401fec:	b9400000 	ldr	w0, [x0]
  401ff0:	34fff140 	cbz	w0, 401e18 <__dcigettext+0x234>
  401ff4:	aa1c03e0 	mov	x0, x28
  401ff8:	528005e1 	mov	w1, #0x2f                  	// #47
  401ffc:	94006071 	bl	41a1c0 <strchr>
  402000:	b5fff000 	cbnz	x0, 401e00 <__dcigettext+0x21c>
  402004:	17ffff85 	b	401e18 <__dcigettext+0x234>
  402008:	f9401360 	ldr	x0, [x27, #32]
  40200c:	b4ffefa0 	cbz	x0, 401e00 <__dcigettext+0x21c>
  402010:	91008361 	add	x1, x27, #0x20
  402014:	d2800007 	mov	x7, #0x0                   	// #0
  402018:	a90663b9 	stp	x25, x24, [x29, #96]
  40201c:	aa1303f8 	mov	x24, x19
  402020:	aa1603f9 	mov	x25, x22
  402024:	aa0703f6 	mov	x22, x7
  402028:	f9003bb7 	str	x23, [x29, #112]
  40202c:	aa0103f7 	mov	x23, x1
  402030:	f9406bb3 	ldr	x19, [x29, #208]
  402034:	14000005 	b	402048 <__dcigettext+0x464>
  402038:	b5000520 	cbnz	x0, 4020dc <__dcigettext+0x4f8>
  40203c:	910006d6 	add	x22, x22, #0x1
  402040:	f8767ae0 	ldr	x0, [x23, x22, lsl #3]
  402044:	b40009c0 	cbz	x0, 40217c <__dcigettext+0x598>
  402048:	aa1303e4 	mov	x4, x19
  40204c:	aa1903e2 	mov	x2, x25
  402050:	aa1803e1 	mov	x1, x24
  402054:	52800023 	mov	w3, #0x1                   	// #1
  402058:	97fffcca 	bl	401380 <_nl_find_msg>
  40205c:	b100041f 	cmn	x0, #0x1
  402060:	54fffec1 	b.ne	402038 <__dcigettext+0x454>  // b.any
  402064:	aa1903f6 	mov	x22, x25
  402068:	17ffff86 	b	401e80 <__dcigettext+0x29c>
  40206c:	b940cba0 	ldr	w0, [x29, #200]
  402070:	f9401443 	ldr	x3, [x2, #40]
  402074:	350008e0 	cbnz	w0, 402190 <__dcigettext+0x5ac>
  402078:	f9466680 	ldr	x0, [x20, #3272]
  40207c:	b40000e0 	cbz	x0, 402098 <__dcigettext+0x4b4>
  402080:	f9406fa0 	ldr	x0, [x29, #216]
  402084:	f9006ba3 	str	x3, [x29, #208]
  402088:	9121a000 	add	x0, x0, #0x868
  40208c:	91010000 	add	x0, x0, #0x40
  402090:	d503201f 	nop
  402094:	f9406ba3 	ldr	x3, [x29, #208]
  402098:	f9466680 	ldr	x0, [x20, #3272]
  40209c:	b40000c0 	cbz	x0, 4020b4 <__dcigettext+0x4d0>
  4020a0:	f0000440 	adrp	x0, 48d000 <known_derivations>
  4020a4:	91014000 	add	x0, x0, #0x50
  4020a8:	f9006fa3 	str	x3, [x29, #216]
  4020ac:	d503201f 	nop
  4020b0:	f9406fa3 	ldr	x3, [x29, #216]
  4020b4:	a94987a0 	ldp	x0, x1, [x29, #152]
  4020b8:	b940afa2 	ldr	w2, [x29, #172]
  4020bc:	b8216802 	str	w2, [x0, x1]
  4020c0:	17ffff86 	b	401ed8 <__dcigettext+0x2f4>
  4020c4:	b0000298 	adrp	x24, 453000 <_IO_stdin_used+0xf0>
  4020c8:	d2800013 	mov	x19, #0x0                   	// #0
  4020cc:	91050318 	add	x24, x24, #0x140
  4020d0:	17ffff18 	b	401d30 <__dcigettext+0x14c>
  4020d4:	d2800003 	mov	x3, #0x0                   	// #0
  4020d8:	17ffff80 	b	401ed8 <__dcigettext+0x2f4>
  4020dc:	2a1603e1 	mov	w1, w22
  4020e0:	aa0003e3 	mov	x3, x0
  4020e4:	aa1903f6 	mov	x22, x25
  4020e8:	8b21cf61 	add	x1, x27, w1, sxtw #3
  4020ec:	f940103c 	ldr	x28, [x1, #32]
  4020f0:	f9006ba3 	str	x3, [x29, #208]
  4020f4:	f94077a0 	ldr	x0, [x29, #232]
  4020f8:	94005ad6 	bl	418c50 <__free>
  4020fc:	f9405ba0 	ldr	x0, [x29, #176]
  402100:	f9406ba3 	ldr	x3, [x29, #208]
  402104:	b4000aa0 	cbz	x0, 402258 <__dcigettext+0x674>
  402108:	f9405ba0 	ldr	x0, [x29, #176]
  40210c:	f9462e82 	ldr	x2, [x20, #3160]
  402110:	f9400000 	ldr	x0, [x0]
  402114:	b9400041 	ldr	w1, [x2]
  402118:	f9407ba4 	ldr	x4, [x29, #240]
  40211c:	b9001801 	str	w1, [x0, #24]
  402120:	a9020c1c 	stp	x28, x3, [x0, #32]
  402124:	f9001804 	str	x4, [x0, #48]
  402128:	a94987a0 	ldp	x0, x1, [x29, #152]
  40212c:	b940afa2 	ldr	w2, [x29, #172]
  402130:	b8216802 	str	w2, [x0, x1]
  402134:	b940cba0 	ldr	w0, [x29, #200]
  402138:	35000600 	cbnz	w0, 4021f8 <__dcigettext+0x614>
  40213c:	f9466680 	ldr	x0, [x20, #3272]
  402140:	b40000e0 	cbz	x0, 40215c <__dcigettext+0x578>
  402144:	f9406fa0 	ldr	x0, [x29, #216]
  402148:	f9006ba3 	str	x3, [x29, #208]
  40214c:	9121a000 	add	x0, x0, #0x868
  402150:	91010000 	add	x0, x0, #0x40
  402154:	d503201f 	nop
  402158:	f9406ba3 	ldr	x3, [x29, #208]
  40215c:	f9466680 	ldr	x0, [x20, #3272]
  402160:	b4ffebc0 	cbz	x0, 401ed8 <__dcigettext+0x2f4>
  402164:	f0000440 	adrp	x0, 48d000 <known_derivations>
  402168:	91014000 	add	x0, x0, #0x50
  40216c:	f9006fa3 	str	x3, [x29, #216]
  402170:	d503201f 	nop
  402174:	f9406fa3 	ldr	x3, [x29, #216]
  402178:	17ffff58 	b	401ed8 <__dcigettext+0x2f4>
  40217c:	aa1803f3 	mov	x19, x24
  402180:	aa1903f6 	mov	x22, x25
  402184:	a94663b9 	ldp	x25, x24, [x29, #96]
  402188:	f9403bb7 	ldr	x23, [x29, #112]
  40218c:	17ffff1d 	b	401e00 <__dcigettext+0x21c>
  402190:	f9401040 	ldr	x0, [x2, #32]
  402194:	f9006ba3 	str	x3, [x29, #208]
  402198:	f94063a1 	ldr	x1, [x29, #192]
  40219c:	f9400813 	ldr	x19, [x0, #16]
  4021a0:	f9401855 	ldr	x21, [x2, #48]
  4021a4:	f9405e60 	ldr	x0, [x19, #184]
  4021a8:	97fffbce 	bl	4010e0 <plural_eval>
  4021ac:	f9406261 	ldr	x1, [x19, #192]
  4021b0:	aa0003f3 	mov	x19, x0
  4021b4:	f9406ba3 	ldr	x3, [x29, #208]
  4021b8:	eb01001f 	cmp	x0, x1
  4021bc:	54fff5e2 	b.cs	402078 <__dcigettext+0x494>  // b.hs, b.nlast
  4021c0:	8b150075 	add	x21, x3, x21
  4021c4:	aa0303e0 	mov	x0, x3
  4021c8:	aa0303f6 	mov	x22, x3
  4021cc:	d503201f 	nop
  4021d0:	d1000673 	sub	x19, x19, #0x1
  4021d4:	b100067f 	cmn	x19, #0x1
  4021d8:	54000cc0 	b.eq	402370 <__dcigettext+0x78c>  // b.none
  4021dc:	52800001 	mov	w1, #0x0                   	// #0
  4021e0:	94006648 	bl	41bb00 <__rawmemchr>
  4021e4:	91000400 	add	x0, x0, #0x1
  4021e8:	eb15001f 	cmp	x0, x21
  4021ec:	54ffff23 	b.cc	4021d0 <__dcigettext+0x5ec>  // b.lo, b.ul, b.last
  4021f0:	aa1603e3 	mov	x3, x22
  4021f4:	17ffffa1 	b	402078 <__dcigettext+0x494>
  4021f8:	f9400b93 	ldr	x19, [x28, #16]
  4021fc:	f9006ba3 	str	x3, [x29, #208]
  402200:	f94063a1 	ldr	x1, [x29, #192]
  402204:	f9405e60 	ldr	x0, [x19, #184]
  402208:	f9407bb5 	ldr	x21, [x29, #240]
  40220c:	97fffbb5 	bl	4010e0 <plural_eval>
  402210:	f9406261 	ldr	x1, [x19, #192]
  402214:	aa0003f3 	mov	x19, x0
  402218:	f9406ba3 	ldr	x3, [x29, #208]
  40221c:	eb01001f 	cmp	x0, x1
  402220:	54fff8e2 	b.cs	40213c <__dcigettext+0x558>  // b.hs, b.nlast
  402224:	8b150075 	add	x21, x3, x21
  402228:	aa0303e0 	mov	x0, x3
  40222c:	aa0303f6 	mov	x22, x3
  402230:	d1000673 	sub	x19, x19, #0x1
  402234:	b100067f 	cmn	x19, #0x1
  402238:	54000a20 	b.eq	40237c <__dcigettext+0x798>  // b.none
  40223c:	52800001 	mov	w1, #0x0                   	// #0
  402240:	94006630 	bl	41bb00 <__rawmemchr>
  402244:	91000400 	add	x0, x0, #0x1
  402248:	eb15001f 	cmp	x0, x21
  40224c:	54ffff23 	b.cc	402230 <__dcigettext+0x64c>  // b.lo, b.ul, b.last
  402250:	aa1603e3 	mov	x3, x22
  402254:	17ffffba 	b	40213c <__dcigettext+0x558>
  402258:	aa1603e0 	mov	x0, x22
  40225c:	97fff829 	bl	400300 <.plt+0x60>
  402260:	f9404bb7 	ldr	x23, [x29, #144]
  402264:	91000413 	add	x19, x0, #0x1
  402268:	aa1703e0 	mov	x0, x23
  40226c:	97fff825 	bl	400300 <.plt+0x60>
  402270:	f9403fa1 	ldr	x1, [x29, #120]
  402274:	8b130000 	add	x0, x0, x19
  402278:	8b010000 	add	x0, x0, x1
  40227c:	94005905 	bl	418690 <__libc_malloc>
  402280:	aa0003f8 	mov	x24, x0
  402284:	f9406ba3 	ldr	x3, [x29, #208]
  402288:	b4fff500 	cbz	x0, 402128 <__dcigettext+0x544>
  40228c:	f94043a0 	ldr	x0, [x29, #128]
  402290:	aa1603e1 	mov	x1, x22
  402294:	aa1303e2 	mov	x2, x19
  402298:	91000416 	add	x22, x0, #0x1
  40229c:	9100e300 	add	x0, x24, #0x38
  4022a0:	97fff804 	bl	4002b0 <.plt+0x10>
  4022a4:	aa1603e2 	mov	x2, x22
  4022a8:	8b130016 	add	x22, x0, x19
  4022ac:	8b0202d3 	add	x19, x22, x2
  4022b0:	aa1503e1 	mov	x1, x21
  4022b4:	aa1603e0 	mov	x0, x22
  4022b8:	97fff7fe 	bl	4002b0 <.plt+0x10>
  4022bc:	aa1703e1 	mov	x1, x23
  4022c0:	aa1303e0 	mov	x0, x19
  4022c4:	9400603f 	bl	41a3c0 <strcpy>
  4022c8:	f9000316 	str	x22, [x24]
  4022cc:	f9462e81 	ldr	x1, [x20, #3160]
  4022d0:	f9000b13 	str	x19, [x24, #16]
  4022d4:	b940cfa0 	ldr	w0, [x29, #204]
  4022d8:	b9000b00 	str	w0, [x24, #8]
  4022dc:	f9460680 	ldr	x0, [x20, #3080]
  4022e0:	b9400024 	ldr	w4, [x1]
  4022e4:	f9406ba3 	ldr	x3, [x29, #208]
  4022e8:	b9001b04 	str	w4, [x24, #24]
  4022ec:	f9407ba2 	ldr	x2, [x29, #240]
  4022f0:	a9020f1c 	stp	x28, x3, [x24, #32]
  4022f4:	f9001b02 	str	x2, [x24, #48]
  4022f8:	b40000c0 	cbz	x0, 402310 <__dcigettext+0x72c>
  4022fc:	f9406fa0 	ldr	x0, [x29, #216]
  402300:	9121a000 	add	x0, x0, #0x868
  402304:	9101e000 	add	x0, x0, #0x78
  402308:	d503201f 	nop
  40230c:	f9406ba3 	ldr	x3, [x29, #208]
  402310:	f9006ba3 	str	x3, [x29, #208]
  402314:	f9406fa0 	ldr	x0, [x29, #216]
  402318:	9121a015 	add	x21, x0, #0x868
  40231c:	f94047a0 	ldr	x0, [x29, #136]
  402320:	910022a1 	add	x1, x21, #0x8
  402324:	910c0002 	add	x2, x0, #0x300
  402328:	aa1803e0 	mov	x0, x24
  40232c:	94007659 	bl	41fc90 <__tsearch>
  402330:	aa0003f3 	mov	x19, x0
  402334:	f9466682 	ldr	x2, [x20, #3272]
  402338:	f9406ba3 	ldr	x3, [x29, #208]
  40233c:	b4000082 	cbz	x2, 40234c <__dcigettext+0x768>
  402340:	9101e2a0 	add	x0, x21, #0x78
  402344:	d503201f 	nop
  402348:	f9406ba3 	ldr	x3, [x29, #208]
  40234c:	b4000093 	cbz	x19, 40235c <__dcigettext+0x778>
  402350:	f9400260 	ldr	x0, [x19]
  402354:	eb18001f 	cmp	x0, x24
  402358:	54ffee80 	b.eq	402128 <__dcigettext+0x544>  // b.none
  40235c:	aa1803e0 	mov	x0, x24
  402360:	f9006ba3 	str	x3, [x29, #208]
  402364:	94005a3b 	bl	418c50 <__free>
  402368:	f9406ba3 	ldr	x3, [x29, #208]
  40236c:	17ffff6f 	b	402128 <__dcigettext+0x544>
  402370:	aa0003e3 	mov	x3, x0
  402374:	17ffff41 	b	402078 <__dcigettext+0x494>
  402378:	94007b0e 	bl	420fb0 <__stack_chk_fail>
  40237c:	aa0003e3 	mov	x3, x0
  402380:	17ffff6f 	b	40213c <__dcigettext+0x558>
  402384:	d503201f 	nop
  402388:	d503201f 	nop
  40238c:	d503201f 	nop

0000000000402390 <_nl_find_domain>:
  402390:	d102c3ff 	sub	sp, sp, #0xb0
  402394:	a9027bfd 	stp	x29, x30, [sp, #32]
  402398:	910083fd 	add	x29, sp, #0x20
  40239c:	a90353f3 	stp	x19, x20, [sp, #48]
  4023a0:	f0000434 	adrp	x20, 489000 <_nl_C_LC_IDENTIFICATION+0xa8>
  4023a4:	f945de85 	ldr	x5, [x20, #3000]
  4023a8:	a9045bf5 	stp	x21, x22, [sp, #64]
  4023ac:	aa0003f5 	mov	x21, x0
  4023b0:	a90563f7 	stp	x23, x24, [sp, #80]
  4023b4:	aa0103f6 	mov	x22, x1
  4023b8:	aa0203f8 	mov	x24, x2
  4023bc:	a9066bf9 	stp	x25, x26, [sp, #96]
  4023c0:	aa0303f7 	mov	x23, x3
  4023c4:	d0000459 	adrp	x25, 48c000 <object.0+0x28>
  4023c8:	f9464a84 	ldr	x4, [x20, #3216]
  4023cc:	f94000a6 	ldr	x6, [x5]
  4023d0:	f90057e6 	str	x6, [sp, #168]
  4023d4:	d2800006 	mov	x6, #0x0                   	// #0
  4023d8:	b4000064 	cbz	x4, 4023e4 <_nl_find_domain+0x54>
  4023dc:	91246320 	add	x0, x25, #0x918
  4023e0:	d503201f 	nop
  4023e4:	aa1503e0 	mov	x0, x21
  4023e8:	97fff7c6 	bl	400300 <.plt+0x60>
  4023ec:	a90063ff 	stp	xzr, x24, [sp]
  4023f0:	9124633a 	add	x26, x25, #0x918
  4023f4:	91000402 	add	x2, x0, #0x1
  4023f8:	b90013ff 	str	wzr, [sp, #16]
  4023fc:	aa1503e1 	mov	x1, x21
  402400:	9100e340 	add	x0, x26, #0x38
  402404:	aa1603e4 	mov	x4, x22
  402408:	d2800007 	mov	x7, #0x0                   	// #0
  40240c:	d2800006 	mov	x6, #0x0                   	// #0
  402410:	d2800005 	mov	x5, #0x0                   	// #0
  402414:	52800003 	mov	w3, #0x0                   	// #0
  402418:	940006d6 	bl	403f70 <_nl_make_l10nflist>
  40241c:	aa0003f3 	mov	x19, x0
  402420:	f9466681 	ldr	x1, [x20, #3272]
  402424:	b4000061 	cbz	x1, 402430 <_nl_find_domain+0xa0>
  402428:	aa1a03e0 	mov	x0, x26
  40242c:	d503201f 	nop
  402430:	b40004f3 	cbz	x19, 4024cc <_nl_find_domain+0x13c>
  402434:	b9400a60 	ldr	w0, [x19, #8]
  402438:	7100001f 	cmp	w0, #0x0
  40243c:	5400040d 	b.le	4024bc <_nl_find_domain+0x12c>
  402440:	f9400a60 	ldr	x0, [x19, #16]
  402444:	b40001e0 	cbz	x0, 402480 <_nl_find_domain+0xf0>
  402448:	f945de94 	ldr	x20, [x20, #3000]
  40244c:	f94057e0 	ldr	x0, [sp, #168]
  402450:	f9400281 	ldr	x1, [x20]
  402454:	eb010000 	subs	x0, x0, x1
  402458:	d2800001 	mov	x1, #0x0                   	// #0
  40245c:	54000dc1 	b.ne	402614 <_nl_find_domain+0x284>  // b.any
  402460:	aa1303e0 	mov	x0, x19
  402464:	a9427bfd 	ldp	x29, x30, [sp, #32]
  402468:	a94353f3 	ldp	x19, x20, [sp, #48]
  40246c:	a9445bf5 	ldp	x21, x22, [sp, #64]
  402470:	a94563f7 	ldp	x23, x24, [sp, #80]
  402474:	a9466bf9 	ldp	x25, x26, [sp, #96]
  402478:	9102c3ff 	add	sp, sp, #0xb0
  40247c:	d65f03c0 	ret
  402480:	f9401260 	ldr	x0, [x19, #32]
  402484:	b4fffe20 	cbz	x0, 402448 <_nl_find_domain+0xb8>
  402488:	91008275 	add	x21, x19, #0x20
  40248c:	14000006 	b	4024a4 <_nl_find_domain+0x114>
  402490:	f94002a0 	ldr	x0, [x21]
  402494:	f9400800 	ldr	x0, [x0, #16]
  402498:	b5fffd80 	cbnz	x0, 402448 <_nl_find_domain+0xb8>
  40249c:	f8408ea0 	ldr	x0, [x21, #8]!
  4024a0:	b4fffd40 	cbz	x0, 402448 <_nl_find_domain+0xb8>
  4024a4:	b9400802 	ldr	w2, [x0, #8]
  4024a8:	7100005f 	cmp	w2, #0x0
  4024ac:	54ffff2c 	b.gt	402490 <_nl_find_domain+0x100>
  4024b0:	aa1703e1 	mov	x1, x23
  4024b4:	9400005b 	bl	402620 <_nl_load_domain>
  4024b8:	17fffff6 	b	402490 <_nl_find_domain+0x100>
  4024bc:	aa1703e1 	mov	x1, x23
  4024c0:	aa1303e0 	mov	x0, x19
  4024c4:	94000057 	bl	402620 <_nl_load_domain>
  4024c8:	17ffffde 	b	402440 <_nl_find_domain+0xb0>
  4024cc:	aa1603e0 	mov	x0, x22
  4024d0:	f9003bfb 	str	x27, [sp, #112]
  4024d4:	94000627 	bl	403d70 <_nl_expand_alias>
  4024d8:	aa0003fb 	mov	x27, x0
  4024dc:	b4000140 	cbz	x0, 402504 <_nl_find_domain+0x174>
  4024e0:	97fff788 	bl	400300 <.plt+0x60>
  4024e4:	9100041a 	add	x26, x0, #0x1
  4024e8:	aa1a03e0 	mov	x0, x26
  4024ec:	94005869 	bl	418690 <__libc_malloc>
  4024f0:	aa0003f6 	mov	x22, x0
  4024f4:	b40005e0 	cbz	x0, 4025b0 <_nl_find_domain+0x220>
  4024f8:	aa1a03e2 	mov	x2, x26
  4024fc:	aa1b03e1 	mov	x1, x27
  402500:	97fff76c 	bl	4002b0 <.plt+0x10>
  402504:	910283e5 	add	x5, sp, #0xa0
  402508:	910263e4 	add	x4, sp, #0x98
  40250c:	910243e3 	add	x3, sp, #0x90
  402510:	910223e2 	add	x2, sp, #0x88
  402514:	910203e1 	add	x1, sp, #0x80
  402518:	aa1603e0 	mov	x0, x22
  40251c:	94000821 	bl	4045a0 <_nl_explode_name>
  402520:	2a0003fa 	mov	w26, w0
  402524:	3100041f 	cmn	w0, #0x1
  402528:	54000440 	b.eq	4025b0 <_nl_find_domain+0x220>  // b.none
  40252c:	f9460680 	ldr	x0, [x20, #3080]
  402530:	b4000060 	cbz	x0, 40253c <_nl_find_domain+0x1ac>
  402534:	91246320 	add	x0, x25, #0x918
  402538:	d503201f 	nop
  40253c:	aa1503e0 	mov	x0, x21
  402540:	97fff770 	bl	400300 <.plt+0x60>
  402544:	91000402 	add	x2, x0, #0x1
  402548:	52800021 	mov	w1, #0x1                   	// #1
  40254c:	a94803e4 	ldp	x4, x0, [sp, #128]
  402550:	a90063e0 	stp	x0, x24, [sp]
  402554:	91246339 	add	x25, x25, #0x918
  402558:	a9491be5 	ldp	x5, x6, [sp, #144]
  40255c:	b90013e1 	str	w1, [sp, #16]
  402560:	f94053e7 	ldr	x7, [sp, #160]
  402564:	aa1503e1 	mov	x1, x21
  402568:	2a1a03e3 	mov	w3, w26
  40256c:	9100e320 	add	x0, x25, #0x38
  402570:	94000680 	bl	403f70 <_nl_make_l10nflist>
  402574:	aa0003f3 	mov	x19, x0
  402578:	f9466681 	ldr	x1, [x20, #3272]
  40257c:	b4000061 	cbz	x1, 402588 <_nl_find_domain+0x1f8>
  402580:	aa1903e0 	mov	x0, x25
  402584:	d503201f 	nop
  402588:	b4000133 	cbz	x19, 4025ac <_nl_find_domain+0x21c>
  40258c:	b9400a60 	ldr	w0, [x19, #8]
  402590:	7100001f 	cmp	w0, #0x0
  402594:	5400038d 	b.le	402604 <_nl_find_domain+0x274>
  402598:	f9400a60 	ldr	x0, [x19, #16]
  40259c:	b4000160 	cbz	x0, 4025c8 <_nl_find_domain+0x238>
  4025a0:	b400007b 	cbz	x27, 4025ac <_nl_find_domain+0x21c>
  4025a4:	aa1603e0 	mov	x0, x22
  4025a8:	940059aa 	bl	418c50 <__free>
  4025ac:	3700007a 	tbnz	w26, #0, 4025b8 <_nl_find_domain+0x228>
  4025b0:	f9403bfb 	ldr	x27, [sp, #112]
  4025b4:	17ffffa5 	b	402448 <_nl_find_domain+0xb8>
  4025b8:	f94053e0 	ldr	x0, [sp, #160]
  4025bc:	940059a5 	bl	418c50 <__free>
  4025c0:	f9403bfb 	ldr	x27, [sp, #112]
  4025c4:	17ffffa1 	b	402448 <_nl_find_domain+0xb8>
  4025c8:	f9401260 	ldr	x0, [x19, #32]
  4025cc:	b4fffea0 	cbz	x0, 4025a0 <_nl_find_domain+0x210>
  4025d0:	91008275 	add	x21, x19, #0x20
  4025d4:	14000006 	b	4025ec <_nl_find_domain+0x25c>
  4025d8:	f94002a0 	ldr	x0, [x21]
  4025dc:	f9400800 	ldr	x0, [x0, #16]
  4025e0:	b5fffe00 	cbnz	x0, 4025a0 <_nl_find_domain+0x210>
  4025e4:	f8408ea0 	ldr	x0, [x21, #8]!
  4025e8:	b4fffdc0 	cbz	x0, 4025a0 <_nl_find_domain+0x210>
  4025ec:	b9400801 	ldr	w1, [x0, #8]
  4025f0:	7100003f 	cmp	w1, #0x0
  4025f4:	54ffff2c 	b.gt	4025d8 <_nl_find_domain+0x248>
  4025f8:	aa1703e1 	mov	x1, x23
  4025fc:	94000009 	bl	402620 <_nl_load_domain>
  402600:	17fffff6 	b	4025d8 <_nl_find_domain+0x248>
  402604:	aa1703e1 	mov	x1, x23
  402608:	aa1303e0 	mov	x0, x19
  40260c:	94000005 	bl	402620 <_nl_load_domain>
  402610:	17ffffe2 	b	402598 <_nl_find_domain+0x208>
  402614:	f9003bfb 	str	x27, [sp, #112]
  402618:	94007a66 	bl	420fb0 <__stack_chk_fail>
  40261c:	d503201f 	nop

0000000000402620 <_nl_load_domain>:
  402620:	a9a67bfd 	stp	x29, x30, [sp, #-416]!
  402624:	910003fd 	mov	x29, sp
  402628:	a90153f3 	stp	x19, x20, [sp, #16]
  40262c:	d0000453 	adrp	x19, 48c000 <object.0+0x28>
  402630:	aa0003f4 	mov	x20, x0
  402634:	a9025bf5 	stp	x21, x22, [sp, #32]
  402638:	91256276 	add	x22, x19, #0x958
  40263c:	f0000435 	adrp	x21, 489000 <_nl_C_LC_IDENTIFICATION+0xa8>
  402640:	a90363f7 	stp	x23, x24, [sp, #48]
  402644:	d53bd057 	mrs	x23, tpidr_el0
  402648:	d11c02f8 	sub	x24, x23, #0x700
  40264c:	f945dea3 	ldr	x3, [x21, #3000]
  402650:	a9046bf9 	stp	x25, x26, [sp, #64]
  402654:	aa0103f9 	mov	x25, x1
  402658:	f94006c2 	ldr	x2, [x22, #8]
  40265c:	f9400064 	ldr	x4, [x3]
  402660:	f900cfe4 	str	x4, [sp, #408]
  402664:	d2800004 	mov	x4, #0x0                   	// #0
  402668:	eb18005f 	cmp	x2, x24
  40266c:	54000100 	b.eq	40268c <_nl_load_domain+0x6c>  // b.none
  402670:	aa1603e2 	mov	x2, x22
  402674:	52800021 	mov	w1, #0x1                   	// #1
  402678:	52800000 	mov	w0, #0x0                   	// #0
  40267c:	94012a39 	bl	44cf60 <__aarch64_cas4_acq>
  402680:	35002ae0 	cbnz	w0, 402bdc <_nl_load_domain+0x5bc>
  402684:	91256260 	add	x0, x19, #0x958
  402688:	f9000418 	str	x24, [x0, #8]
  40268c:	91256276 	add	x22, x19, #0x958
  402690:	b9400a80 	ldr	w0, [x20, #8]
  402694:	b94006c2 	ldr	w2, [x22, #4]
  402698:	11000441 	add	w1, w2, #0x1
  40269c:	b90006c1 	str	w1, [x22, #4]
  4026a0:	35001f20 	cbnz	w0, 402a84 <_nl_load_domain+0x464>
  4026a4:	f9400280 	ldr	x0, [x20]
  4026a8:	12800001 	mov	w1, #0xffffffff            	// #-1
  4026ac:	b9000a81 	str	w1, [x20, #8]
  4026b0:	f9000a9f 	str	xzr, [x20, #16]
  4026b4:	b4001e40 	cbz	x0, 402a7c <_nl_load_domain+0x45c>
  4026b8:	52800001 	mov	w1, #0x0                   	// #0
  4026bc:	94007365 	bl	41f450 <__open64_nocancel>
  4026c0:	2a0003f8 	mov	w24, w0
  4026c4:	3100041f 	cmn	w0, #0x1
  4026c8:	54002840 	b.eq	402bd0 <_nl_load_domain+0x5b0>  // b.none
  4026cc:	2a0003e1 	mov	w1, w0
  4026d0:	910463e2 	add	x2, sp, #0x118
  4026d4:	52800000 	mov	w0, #0x0                   	// #0
  4026d8:	9400706e 	bl	41e890 <__fxstat>
  4026dc:	2a0003fa 	mov	w26, w0
  4026e0:	35001c40 	cbnz	w0, 402a68 <_nl_load_domain+0x448>
  4026e4:	a90573fb 	stp	x27, x28, [sp, #80]
  4026e8:	f940a7fc 	ldr	x28, [sp, #328]
  4026ec:	f100bf9f 	cmp	x28, #0x2f
  4026f0:	540036a9 	b.ls	402dc4 <_nl_load_domain+0x7a4>  // b.plast
  4026f4:	2a1803e4 	mov	w4, w24
  4026f8:	aa1c03e1 	mov	x1, x28
  4026fc:	d2800005 	mov	x5, #0x0                   	// #0
  402700:	52800043 	mov	w3, #0x2                   	// #2
  402704:	52800022 	mov	w2, #0x1                   	// #1
  402708:	d2800000 	mov	x0, #0x0                   	// #0
  40270c:	94007445 	bl	41f820 <__mmap64>
  402710:	aa0003fb 	mov	x27, x0
  402714:	b100041f 	cmn	x0, #0x1
  402718:	54002f80 	b.eq	402d08 <_nl_load_domain+0x6e8>  // b.none
  40271c:	2a1803e0 	mov	w0, w24
  402720:	940072d4 	bl	41f270 <__close_nocancel>
  402724:	b9400363 	ldr	w3, [x27]
  402728:	52825bc1 	mov	w1, #0x12de                	// #4830
  40272c:	72b2a081 	movk	w1, #0x9504, lsl #16
  402730:	528092a0 	mov	w0, #0x495                 	// #1173
  402734:	6b01007f 	cmp	w3, w1
  402738:	72bbc240 	movk	w0, #0xde12, lsl #16
  40273c:	1a9f07f7 	cset	w23, ne  // ne = any
  402740:	710002ff 	cmp	w23, #0x0
  402744:	7a401064 	ccmp	w3, w0, #0x4, ne  // ne = any
  402748:	54002701 	b.ne	402c28 <_nl_load_domain+0x608>  // b.any
  40274c:	5280003a 	mov	w26, #0x1                   	// #1
  402750:	d2801900 	mov	x0, #0xc8                  	// #200
  402754:	b90063e3 	str	w3, [sp, #96]
  402758:	940057ce 	bl	418690 <__libc_malloc>
  40275c:	aa0003f8 	mov	x24, x0
  402760:	b94063e3 	ldr	w3, [sp, #96]
  402764:	b4002120 	cbz	x0, 402b88 <_nl_load_domain+0x568>
  402768:	b9400760 	ldr	w0, [x27, #4]
  40276c:	52825bc1 	mov	w1, #0x12de                	// #4830
  402770:	f900031b 	str	x27, [x24]
  402774:	72b2a081 	movk	w1, #0x9504, lsl #16
  402778:	b9000b1a 	str	w26, [x24, #8]
  40277c:	f9000a98 	str	x24, [x20, #16]
  402780:	f9000b1c 	str	x28, [x24, #16]
  402784:	b9001b17 	str	w23, [x24, #24]
  402788:	f900131f 	str	xzr, [x24, #32]
  40278c:	6b01007f 	cmp	w3, w1
  402790:	54001b20 	b.eq	402af4 <_nl_load_domain+0x4d4>  // b.none
  402794:	5ac00800 	rev	w0, w0
  402798:	13107c01 	asr	w1, w0, #16
  40279c:	7100043f 	cmp	w1, #0x1
  4027a0:	54001fe8 	b.hi	402b9c <_nl_load_domain+0x57c>  // b.pmore
  4027a4:	29410b64 	ldp	w4, w2, [x27, #8]
  4027a8:	12003c00 	and	w0, w0, #0xffff
  4027ac:	29421f61 	ldp	w1, w7, [x27, #16]
  4027b0:	5ac00842 	rev	w2, w2
  4027b4:	8b020362 	add	x2, x27, x2
  4027b8:	5ac00884 	rev	w4, w4
  4027bc:	5ac00821 	rev	w1, w1
  4027c0:	5ac008e5 	rev	w5, w7
  4027c4:	8b010361 	add	x1, x27, x1
  4027c8:	b9002b04 	str	w4, [x24, #40]
  4027cc:	a9030702 	stp	x2, x1, [x24, #48]
  4027d0:	b9005b05 	str	w5, [x24, #88]
  4027d4:	b90063e5 	str	w5, [sp, #96]
  4027d8:	710008bf 	cmp	w5, #0x2
  4027dc:	54001a89 	b.ls	402b2c <_nl_load_domain+0x50c>  // b.plast
  4027e0:	b9401b61 	ldr	w1, [x27, #24]
  4027e4:	b9006b17 	str	w23, [x24, #104]
  4027e8:	5ac00821 	rev	w1, w1
  4027ec:	8b010361 	add	x1, x27, x1
  4027f0:	f9003301 	str	x1, [x24, #96]
  4027f4:	f90043e1 	str	x1, [sp, #128]
  4027f8:	34001a00 	cbz	w0, 402b38 <_nl_load_domain+0x518>
  4027fc:	b9402760 	ldr	w0, [x27, #36]
  402800:	5ac00801 	rev	w1, w0
  402804:	b9006be1 	str	w1, [sp, #104]
  402808:	34001980 	cbz	w0, 402b38 <_nl_load_domain+0x518>
  40280c:	2943db60 	ldp	w0, w22, [x27, #28]
  402810:	5ac00ad6 	rev	w22, w22
  402814:	5ac00800 	rev	w0, w0
  402818:	b9007fe0 	str	w0, [sp, #124]
  40281c:	b9407ff7 	ldr	w23, [sp, #124]
  402820:	d2800101 	mov	x1, #0x8                   	// #8
  402824:	8b160376 	add	x22, x27, x22
  402828:	b90073e3 	str	w3, [sp, #112]
  40282c:	aa1703e0 	mov	x0, x23
  402830:	94005ab0 	bl	4192f0 <__calloc>
  402834:	aa0003e4 	mov	x4, x0
  402838:	b4001b20 	cbz	x0, 402b9c <_nl_load_domain+0x57c>
  40283c:	b9407fe0 	ldr	w0, [sp, #124]
  402840:	d37df2e7 	lsl	x7, x23, #3
  402844:	b94073e3 	ldr	w3, [sp, #112]
  402848:	910012c8 	add	x8, x22, #0x4
  40284c:	d2800002 	mov	x2, #0x0                   	// #0
  402850:	340006e0 	cbz	w0, 40292c <_nl_load_domain+0x30c>
  402854:	b0000280 	adrp	x0, 453000 <_IO_stdin_used+0xf0>
  402858:	9106a000 	add	x0, x0, #0x1a8
  40285c:	f9003be0 	str	x0, [sp, #112]
  402860:	b0000340 	adrp	x0, 46b000 <__tens+0x2ee0>
  402864:	91388000 	add	x0, x0, #0xe20
  402868:	b0000281 	adrp	x1, 453000 <_IO_stdin_used+0xf0>
  40286c:	91068021 	add	x1, x1, #0x1a0
  402870:	f9004be0 	str	x0, [sp, #144]
  402874:	b0000280 	adrp	x0, 453000 <_IO_stdin_used+0xf0>
  402878:	9105c000 	add	x0, x0, #0x170
  40287c:	b000028a 	adrp	x10, 453000 <_IO_stdin_used+0xf0>
  402880:	b000028e 	adrp	x14, 453000 <_IO_stdin_used+0xf0>
  402884:	b000028d 	adrp	x13, 453000 <_IO_stdin_used+0xf0>
  402888:	b000028c 	adrp	x12, 453000 <_IO_stdin_used+0xf0>
  40288c:	b0000297 	adrp	x23, 453000 <_IO_stdin_used+0xf0>
  402890:	b000029e 	adrp	x30, 453000 <_IO_stdin_used+0xf0>
  402894:	52825bc9 	mov	w9, #0x12de                	// #4830
  402898:	9106e14a 	add	x10, x10, #0x1b8
  40289c:	910601ce 	add	x14, x14, #0x180
  4028a0:	910661ad 	add	x13, x13, #0x198
  4028a4:	9106418c 	add	x12, x12, #0x190
  4028a8:	9105e2f7 	add	x23, x23, #0x178
  4028ac:	910623de 	add	x30, x30, #0x188
  4028b0:	f90047e1 	str	x1, [sp, #136]
  4028b4:	b0000281 	adrp	x1, 453000 <_IO_stdin_used+0xf0>
  4028b8:	9105a026 	add	x6, x1, #0x168
  4028bc:	f9004fe0 	str	x0, [sp, #152]
  4028c0:	b0000280 	adrp	x0, 453000 <_IO_stdin_used+0xf0>
  4028c4:	9106c005 	add	x5, x0, #0x1b0
  4028c8:	72b2a089 	movk	w9, #0x9504, lsl #16
  4028cc:	d503201f 	nop
  4028d0:	b8626900 	ldr	w0, [x8, x2]
  4028d4:	b8626ac1 	ldr	w1, [x22, x2]
  4028d8:	6b09007f 	cmp	w3, w9
  4028dc:	54001b40 	b.eq	402c44 <_nl_load_domain+0x624>  // b.none
  4028e0:	5ac00800 	rev	w0, w0
  4028e4:	5ac00821 	rev	w1, w1
  4028e8:	8b000360 	add	x0, x27, x0
  4028ec:	340027a1 	cbz	w1, 402de0 <_nl_load_domain+0x7c0>
  4028f0:	51000421 	sub	w1, w1, #0x1
  4028f4:	38614801 	ldrb	w1, [x0, w1, uxtw]
  4028f8:	35002741 	cbnz	w1, 402de0 <_nl_load_domain+0x7c0>
  4028fc:	39400001 	ldrb	w1, [x0]
  402900:	7101403f 	cmp	w1, #0x50
  402904:	54001a40 	b.eq	402c4c <_nl_load_domain+0x62c>  // b.none
  402908:	7101243f 	cmp	w1, #0x49
  40290c:	54002721 	b.ne	402df0 <_nl_load_domain+0x7d0>  // b.any
  402910:	39400400 	ldrb	w0, [x0, #1]
  402914:	7100001f 	cmp	w0, #0x0
  402918:	9a9f0141 	csel	x1, x10, xzr, eq  // eq = none
  40291c:	f8226881 	str	x1, [x4, x2]
  402920:	91002042 	add	x2, x2, #0x8
  402924:	eb0200ff 	cmp	x7, x2
  402928:	54fffd41 	b.ne	4028d0 <_nl_load_domain+0x2b0>  // b.any
  40292c:	52825bc2 	mov	w2, #0x12de                	// #4830
  402930:	29450361 	ldp	w1, w0, [x27, #40]
  402934:	72b2a082 	movk	w2, #0x9504, lsl #16
  402938:	6b02007f 	cmp	w3, w2
  40293c:	54002a20 	b.eq	402e80 <_nl_load_domain+0x860>  // b.none
  402940:	5ac00821 	rev	w1, w1
  402944:	5ac00800 	rev	w0, w0
  402948:	8b010361 	add	x1, x27, x1
  40294c:	f90057e1 	str	x1, [sp, #168]
  402950:	f94033e1 	ldr	x1, [sp, #96]
  402954:	a90ce7f4 	stp	x20, x25, [sp, #200]
  402958:	b9407ff9 	ldr	w25, [sp, #124]
  40295c:	8b000360 	add	x0, x27, x0
  402960:	2a0303f6 	mov	w22, w3
  402964:	d37e7c21 	ubfiz	x1, x1, #2, #32
  402968:	f90053e1 	str	x1, [sp, #160]
  40296c:	b900b3fa 	str	w26, [sp, #176]
  402970:	aa0403fa 	mov	x26, x4
  402974:	a90be3fc 	stp	x28, x24, [sp, #184]
  402978:	f9006fe1 	str	x1, [sp, #216]
  40297c:	d2800001 	mov	x1, #0x0                   	// #0
  402980:	aa0103f8 	mov	x24, x1
  402984:	f9003bfb 	str	x27, [sp, #112]
  402988:	f90047e0 	str	x0, [sp, #136]
  40298c:	910423e0 	add	x0, sp, #0x108
  402990:	f9004be0 	str	x0, [sp, #144]
  402994:	b9009bff 	str	wzr, [sp, #152]
  402998:	f9404bfc 	ldr	x28, [sp, #144]
  40299c:	52800017 	mov	w23, #0x0                   	// #0
  4029a0:	52825bc0 	mov	w0, #0x12de                	// #4830
  4029a4:	72b2a080 	movk	w0, #0x9504, lsl #16
  4029a8:	6b0002df 	cmp	w22, w0
  4029ac:	54002000 	b.eq	402dac <_nl_load_domain+0x78c>  // b.none
  4029b0:	34002577 	cbz	w23, 402e5c <_nl_load_domain+0x83c>
  4029b4:	f94047e0 	ldr	x0, [sp, #136]
  4029b8:	b8787802 	ldr	w2, [x0, x24, lsl #2]
  4029bc:	5ac00842 	rev	w2, w2
  4029c0:	f9403be0 	ldr	x0, [sp, #112]
  4029c4:	d2800014 	mov	x20, #0x0                   	// #0
  4029c8:	8b020002 	add	x2, x0, x2
  4029cc:	b9400840 	ldr	w0, [x2, #8]
  4029d0:	3100041f 	cmn	w0, #0x1
  4029d4:	1a9f07e0 	cset	w0, ne  // ne = any
  4029d8:	35002100 	cbnz	w0, 402df8 <_nl_load_domain+0x7d8>
  4029dc:	f8008794 	str	x20, [x28], #8
  4029e0:	34001ef7 	cbz	w23, 402dbc <_nl_load_domain+0x79c>
  4029e4:	b9409be1 	ldr	w1, [sp, #152]
  4029e8:	f94087e0 	ldr	x0, [sp, #264]
  4029ec:	11000421 	add	w1, w1, #0x1
  4029f0:	b9009be1 	str	w1, [sp, #152]
  4029f4:	f9408be1 	ldr	x1, [sp, #272]
  4029f8:	8b010000 	add	x0, x0, x1
  4029fc:	f94053e1 	ldr	x1, [sp, #160]
  402a00:	8b000020 	add	x0, x1, x0
  402a04:	f90053e0 	str	x0, [sp, #160]
  402a08:	b9406be0 	ldr	w0, [sp, #104]
  402a0c:	91000718 	add	x24, x24, #0x1
  402a10:	6b18001f 	cmp	w0, w24
  402a14:	54fffc28 	b.hi	402998 <_nl_load_domain+0x378>  // b.pmore
  402a18:	b9409be0 	ldr	w0, [sp, #152]
  402a1c:	aa1a03e4 	mov	x4, x26
  402a20:	2a1603e3 	mov	w3, w22
  402a24:	b940b3fa 	ldr	w26, [sp, #176]
  402a28:	f9403bfb 	ldr	x27, [sp, #112]
  402a2c:	a94be3fc 	ldp	x28, x24, [sp, #184]
  402a30:	a94ce7f4 	ldp	x20, x25, [sp, #200]
  402a34:	350037e0 	cbnz	w0, 403130 <_nl_load_domain+0xb10>
  402a38:	b900431f 	str	wzr, [x24, #64]
  402a3c:	a904ff1f 	stp	xzr, xzr, [x24, #72]
  402a40:	aa0403e0 	mov	x0, x4
  402a44:	94005883 	bl	418c50 <__free>
  402a48:	1400003e 	b	402b40 <_nl_load_domain+0x520>
  402a4c:	b100041f 	cmn	x0, #0x1
  402a50:	54000081 	b.ne	402a60 <_nl_load_domain+0x440>  // b.any
  402a54:	b8766ae0 	ldr	w0, [x23, x22]
  402a58:	7100101f 	cmp	w0, #0x4
  402a5c:	540016c0 	b.eq	402d34 <_nl_load_domain+0x714>  // b.none
  402a60:	a94573fb 	ldp	x27, x28, [sp, #80]
  402a64:	2a1a03f8 	mov	w24, w26
  402a68:	2a1803e0 	mov	w0, w24
  402a6c:	94007201 	bl	41f270 <__close_nocancel>
  402a70:	91256260 	add	x0, x19, #0x958
  402a74:	b9400402 	ldr	w2, [x0, #4]
  402a78:	51000442 	sub	w2, w2, #0x1
  402a7c:	52800020 	mov	w0, #0x1                   	// #1
  402a80:	b9000a80 	str	w0, [x20, #8]
  402a84:	91256273 	add	x19, x19, #0x958
  402a88:	b9000662 	str	w2, [x19, #4]
  402a8c:	340001a2 	cbz	w2, 402ac0 <_nl_load_domain+0x4a0>
  402a90:	f945deb5 	ldr	x21, [x21, #3000]
  402a94:	f940cfe0 	ldr	x0, [sp, #408]
  402a98:	f94002a1 	ldr	x1, [x21]
  402a9c:	eb010000 	subs	x0, x0, x1
  402aa0:	d2800001 	mov	x1, #0x0                   	// #0
  402aa4:	54005581 	b.ne	403554 <_nl_load_domain+0xf34>  // b.any
  402aa8:	a94153f3 	ldp	x19, x20, [sp, #16]
  402aac:	a9425bf5 	ldp	x21, x22, [sp, #32]
  402ab0:	a94363f7 	ldp	x23, x24, [sp, #48]
  402ab4:	a9446bf9 	ldp	x25, x26, [sp, #64]
  402ab8:	a8da7bfd 	ldp	x29, x30, [sp], #416
  402abc:	d65f03c0 	ret
  402ac0:	aa1303e1 	mov	x1, x19
  402ac4:	52800000 	mov	w0, #0x0                   	// #0
  402ac8:	f900067f 	str	xzr, [x19, #8]
  402acc:	94012985 	bl	44d0e0 <__aarch64_swp4_rel>
  402ad0:	7100041f 	cmp	w0, #0x1
  402ad4:	54fffded 	b.le	402a90 <_nl_load_domain+0x470>
  402ad8:	aa1303e0 	mov	x0, x19
  402adc:	d2801021 	mov	x1, #0x81                  	// #129
  402ae0:	d2800022 	mov	x2, #0x1                   	// #1
  402ae4:	d2800003 	mov	x3, #0x0                   	// #0
  402ae8:	d2800c48 	mov	x8, #0x62                  	// #98
  402aec:	d4000001 	svc	#0x0
  402af0:	17ffffe8 	b	402a90 <_nl_load_domain+0x470>
  402af4:	13107c01 	asr	w1, w0, #16
  402af8:	7100043f 	cmp	w1, #0x1
  402afc:	54000508 	b.hi	402b9c <_nl_load_domain+0x57c>  // b.pmore
  402b00:	29421761 	ldp	w1, w5, [x27, #16]
  402b04:	b90063e5 	str	w5, [sp, #96]
  402b08:	29410b64 	ldp	w4, w2, [x27, #8]
  402b0c:	8b010361 	add	x1, x27, x1
  402b10:	b9002b04 	str	w4, [x24, #40]
  402b14:	12003c00 	and	w0, w0, #0xffff
  402b18:	8b020362 	add	x2, x27, x2
  402b1c:	a9030702 	stp	x2, x1, [x24, #48]
  402b20:	b9005b05 	str	w5, [x24, #88]
  402b24:	710008bf 	cmp	w5, #0x2
  402b28:	54000688 	b.hi	402bf8 <_nl_load_domain+0x5d8>  // b.pmore
  402b2c:	f900331f 	str	xzr, [x24, #96]
  402b30:	b9006b17 	str	w23, [x24, #104]
  402b34:	35000340 	cbnz	w0, 402b9c <_nl_load_domain+0x57c>
  402b38:	b900431f 	str	wzr, [x24, #64]
  402b3c:	a904ff1f 	stp	xzr, xzr, [x24, #72]
  402b40:	f945f6a1 	ldr	x1, [x21, #3048]
  402b44:	a9077f1f 	stp	xzr, xzr, [x24, #112]
  402b48:	b4000081 	cbz	x1, 402b58 <_nl_load_domain+0x538>
  402b4c:	91020300 	add	x0, x24, #0x80
  402b50:	d2800001 	mov	x1, #0x0                   	// #0
  402b54:	d503201f 	nop
  402b58:	b0000282 	adrp	x2, 453000 <_IO_stdin_used+0xf0>
  402b5c:	aa1903e1 	mov	x1, x25
  402b60:	910403e4 	add	x4, sp, #0x100
  402b64:	911ba042 	add	x2, x2, #0x6e8
  402b68:	aa1403e0 	mov	x0, x20
  402b6c:	52800003 	mov	w3, #0x0                   	// #0
  402b70:	97fffa04 	bl	401380 <_nl_find_msg>
  402b74:	b100041f 	cmn	x0, #0x1
  402b78:	54001780 	b.eq	402e68 <_nl_load_domain+0x848>  // b.none
  402b7c:	91030302 	add	x2, x24, #0xc0
  402b80:	9102e301 	add	x1, x24, #0xb8
  402b84:	94000973 	bl	405150 <__gettext_extract_plural>
  402b88:	91256260 	add	x0, x19, #0x958
  402b8c:	a94573fb 	ldp	x27, x28, [sp, #80]
  402b90:	b9400402 	ldr	w2, [x0, #4]
  402b94:	51000442 	sub	w2, w2, #0x1
  402b98:	17ffffb9 	b	402a7c <_nl_load_domain+0x45c>
  402b9c:	d2800000 	mov	x0, #0x0                   	// #0
  402ba0:	9400582c 	bl	418c50 <__free>
  402ba4:	3500023a 	cbnz	w26, 402be8 <_nl_load_domain+0x5c8>
  402ba8:	aa1b03e0 	mov	x0, x27
  402bac:	94005829 	bl	418c50 <__free>
  402bb0:	aa1803e0 	mov	x0, x24
  402bb4:	94005827 	bl	418c50 <__free>
  402bb8:	91256260 	add	x0, x19, #0x958
  402bbc:	a94573fb 	ldp	x27, x28, [sp, #80]
  402bc0:	f9000a9f 	str	xzr, [x20, #16]
  402bc4:	b9400402 	ldr	w2, [x0, #4]
  402bc8:	51000442 	sub	w2, w2, #0x1
  402bcc:	17ffffac 	b	402a7c <_nl_load_domain+0x45c>
  402bd0:	b94006c2 	ldr	w2, [x22, #4]
  402bd4:	51000442 	sub	w2, w2, #0x1
  402bd8:	17ffffa9 	b	402a7c <_nl_load_domain+0x45c>
  402bdc:	aa1603e0 	mov	x0, x22
  402be0:	940044c0 	bl	413ee0 <__lll_lock_wait_private>
  402be4:	17fffea8 	b	402684 <_nl_load_domain+0x64>
  402be8:	aa1c03e1 	mov	x1, x28
  402bec:	aa1b03e0 	mov	x0, x27
  402bf0:	94007324 	bl	41f880 <__munmap>
  402bf4:	17ffffef 	b	402bb0 <_nl_load_domain+0x590>
  402bf8:	b9401b61 	ldr	w1, [x27, #24]
  402bfc:	b9006b17 	str	w23, [x24, #104]
  402c00:	8b010361 	add	x1, x27, x1
  402c04:	f9003301 	str	x1, [x24, #96]
  402c08:	f90043e1 	str	x1, [sp, #128]
  402c0c:	34fff960 	cbz	w0, 402b38 <_nl_load_domain+0x518>
  402c10:	b9402760 	ldr	w0, [x27, #36]
  402c14:	b9006be0 	str	w0, [sp, #104]
  402c18:	34fff900 	cbz	w0, 402b38 <_nl_load_domain+0x518>
  402c1c:	2943db60 	ldp	w0, w22, [x27, #28]
  402c20:	b9007fe0 	str	w0, [sp, #124]
  402c24:	17fffefe 	b	40281c <_nl_load_domain+0x1fc>
  402c28:	aa1c03e1 	mov	x1, x28
  402c2c:	aa1b03e0 	mov	x0, x27
  402c30:	94007314 	bl	41f880 <__munmap>
  402c34:	b94006c2 	ldr	w2, [x22, #4]
  402c38:	a94573fb 	ldp	x27, x28, [sp, #80]
  402c3c:	51000442 	sub	w2, w2, #0x1
  402c40:	17ffff8f 	b	402a7c <_nl_load_domain+0x45c>
  402c44:	8b204360 	add	x0, x27, w0, uxtw
  402c48:	17ffff29 	b	4028ec <_nl_load_domain+0x2cc>
  402c4c:	3940040b 	ldrb	w11, [x0, #1]
  402c50:	d2800001 	mov	x1, #0x0                   	// #0
  402c54:	7101497f 	cmp	w11, #0x52
  402c58:	54ffe621 	b.ne	40291c <_nl_load_domain+0x2fc>  // b.any
  402c5c:	3940080b 	ldrb	w11, [x0, #2]
  402c60:	7101257f 	cmp	w11, #0x49
  402c64:	54ffe5c1 	b.ne	40291c <_nl_load_domain+0x2fc>  // b.any
  402c68:	39400c0b 	ldrb	w11, [x0, #3]
  402c6c:	7101917f 	cmp	w11, #0x64
  402c70:	121a7972 	and	w18, w11, #0xffffffdf
  402c74:	1a9f17f1 	cset	w17, eq  // eq = none
  402c78:	7101a57f 	cmp	w11, #0x69
  402c7c:	1a9f17ef 	cset	w15, eq  // eq = none
  402c80:	7101bd7f 	cmp	w11, #0x6f
  402c84:	2a0f0231 	orr	w17, w17, w15
  402c88:	1a9f17f0 	cset	w16, eq  // eq = none
  402c8c:	7101d57f 	cmp	w11, #0x75
  402c90:	2a100230 	orr	w16, w17, w16
  402c94:	1a9f17ef 	cset	w15, eq  // eq = none
  402c98:	7101625f 	cmp	w18, #0x58
  402c9c:	2a0f020f 	orr	w15, w16, w15
  402ca0:	7a4019e0 	ccmp	w15, #0x0, #0x0, ne  // ne = any
  402ca4:	54ffe3c0 	b.eq	40291c <_nl_load_domain+0x2fc>  // b.none
  402ca8:	39401012 	ldrb	w18, [x0, #4]
  402cac:	7100e25f 	cmp	w18, #0x38
  402cb0:	54001d60 	b.eq	40305c <_nl_load_domain+0xa3c>  // b.none
  402cb4:	7100c65f 	cmp	w18, #0x31
  402cb8:	54001ee0 	b.eq	403094 <_nl_load_domain+0xa74>  // b.none
  402cbc:	7100ce5f 	cmp	w18, #0x33
  402cc0:	54000e81 	b.ne	402e90 <_nl_load_domain+0x870>  // b.any
  402cc4:	39401412 	ldrb	w18, [x0, #5]
  402cc8:	7100ca5f 	cmp	w18, #0x32
  402ccc:	54ffe281 	b.ne	40291c <_nl_load_domain+0x2fc>  // b.any
  402cd0:	39401800 	ldrb	w0, [x0, #6]
  402cd4:	35004440 	cbnz	w0, 40355c <_nl_load_domain+0xf3c>
  402cd8:	7101917f 	cmp	w11, #0x64
  402cdc:	54004600 	b.eq	40359c <_nl_load_domain+0xf7c>  // b.none
  402ce0:	350045b1 	cbnz	w17, 403594 <_nl_load_domain+0xf74>
  402ce4:	35004910 	cbnz	w16, 403604 <_nl_load_domain+0xfe4>
  402ce8:	350048af 	cbnz	w15, 4035fc <_nl_load_domain+0xfdc>
  402cec:	7101e17f 	cmp	w11, #0x78
  402cf0:	54004a60 	b.eq	40363c <_nl_load_domain+0x101c>  // b.none
  402cf4:	7101617f 	cmp	w11, #0x58
  402cf8:	54006301 	b.ne	403958 <_nl_load_domain+0x1338>  // b.any
  402cfc:	b0000281 	adrp	x1, 453000 <_IO_stdin_used+0xf0>
  402d00:	911ae021 	add	x1, x1, #0x6b8
  402d04:	17ffff06 	b	40291c <_nl_load_domain+0x2fc>
  402d08:	aa1c03e0 	mov	x0, x28
  402d0c:	94005661 	bl	418690 <__libc_malloc>
  402d10:	aa0003fb 	mov	x27, x0
  402d14:	b4000580 	cbz	x0, 402dc4 <_nl_load_domain+0x7a4>
  402d18:	f0000436 	adrp	x22, 489000 <_nl_C_LC_IDENTIFICATION+0xa8>
  402d1c:	f946ead6 	ldr	x22, [x22, #3536]
  402d20:	b90063fa 	str	w26, [sp, #96]
  402d24:	2a1803fa 	mov	w26, w24
  402d28:	aa1c03f8 	mov	x24, x28
  402d2c:	f90037f9 	str	x25, [sp, #104]
  402d30:	aa0003f9 	mov	x25, x0
  402d34:	aa1803e2 	mov	x2, x24
  402d38:	aa1903e1 	mov	x1, x25
  402d3c:	2a1a03e0 	mov	w0, w26
  402d40:	9400722c 	bl	41f5f0 <__read_nocancel>
  402d44:	f100001f 	cmp	x0, #0x0
  402d48:	54ffe82d 	b.le	402a4c <_nl_load_domain+0x42c>
  402d4c:	8b000339 	add	x25, x25, x0
  402d50:	eb000318 	subs	x24, x24, x0
  402d54:	54ffff01 	b.ne	402d34 <_nl_load_domain+0x714>  // b.any
  402d58:	2a1a03e0 	mov	w0, w26
  402d5c:	b94063fa 	ldr	w26, [sp, #96]
  402d60:	f94037f9 	ldr	x25, [sp, #104]
  402d64:	94007143 	bl	41f270 <__close_nocancel>
  402d68:	b9400363 	ldr	w3, [x27]
  402d6c:	52825bc1 	mov	w1, #0x12de                	// #4830
  402d70:	72b2a081 	movk	w1, #0x9504, lsl #16
  402d74:	528092a0 	mov	w0, #0x495                 	// #1173
  402d78:	6b01007f 	cmp	w3, w1
  402d7c:	72bbc240 	movk	w0, #0xde12, lsl #16
  402d80:	1a9f07f7 	cset	w23, ne  // ne = any
  402d84:	710002ff 	cmp	w23, #0x0
  402d88:	7a401064 	ccmp	w3, w0, #0x4, ne  // ne = any
  402d8c:	54ffce20 	b.eq	402750 <_nl_load_domain+0x130>  // b.none
  402d90:	aa1b03e0 	mov	x0, x27
  402d94:	940057af 	bl	418c50 <__free>
  402d98:	91256260 	add	x0, x19, #0x958
  402d9c:	a94573fb 	ldp	x27, x28, [sp, #80]
  402da0:	b9400402 	ldr	w2, [x0, #4]
  402da4:	51000442 	sub	w2, w2, #0x1
  402da8:	17ffff35 	b	402a7c <_nl_load_domain+0x45c>
  402dac:	34000537 	cbz	w23, 402e50 <_nl_load_domain+0x830>
  402db0:	f94047e0 	ldr	x0, [sp, #136]
  402db4:	b8787802 	ldr	w2, [x0, x24, lsl #2]
  402db8:	17ffff02 	b	4029c0 <_nl_load_domain+0x3a0>
  402dbc:	52800037 	mov	w23, #0x1                   	// #1
  402dc0:	17fffef8 	b	4029a0 <_nl_load_domain+0x380>
  402dc4:	a94573fb 	ldp	x27, x28, [sp, #80]
  402dc8:	17ffff28 	b	402a68 <_nl_load_domain+0x448>
  402dcc:	a94be3fc 	ldp	x28, x24, [sp, #184]
  402dd0:	aa1a03e4 	mov	x4, x26
  402dd4:	b940b3fa 	ldr	w26, [sp, #176]
  402dd8:	f9403bfb 	ldr	x27, [sp, #112]
  402ddc:	f94067f4 	ldr	x20, [sp, #200]
  402de0:	aa0403e0 	mov	x0, x4
  402de4:	9400579b 	bl	418c50 <__free>
  402de8:	d2800000 	mov	x0, #0x0                   	// #0
  402dec:	17ffff6d 	b	402ba0 <_nl_load_domain+0x580>
  402df0:	d2800001 	mov	x1, #0x0                   	// #0
  402df4:	17fffeca 	b	40291c <_nl_load_domain+0x2fc>
  402df8:	9100105b 	add	x27, x2, #0x4
  402dfc:	d2800001 	mov	x1, #0x0                   	// #0
  402e00:	1400000d 	b	402e34 <_nl_load_domain+0x814>
  402e04:	5ac00863 	rev	w3, w3
  402e08:	5ac00800 	rev	w0, w0
  402e0c:	8b010074 	add	x20, x3, x1
  402e10:	3100041f 	cmn	w0, #0x1
  402e14:	54ffde40 	b.eq	4029dc <_nl_load_domain+0x3bc>  // b.none
  402e18:	6b19001f 	cmp	w0, w25
  402e1c:	54fffd82 	b.cs	402dcc <_nl_load_domain+0x7ac>  // b.hs, b.nlast
  402e20:	f8605b40 	ldr	x0, [x26, w0, uxtw #3]
  402e24:	b4ffdf20 	cbz	x0, 402a08 <_nl_load_domain+0x3e8>
  402e28:	97fff536 	bl	400300 <.plt+0x60>
  402e2c:	9100237b 	add	x27, x27, #0x8
  402e30:	8b140001 	add	x1, x0, x20
  402e34:	52825bc2 	mov	w2, #0x12de                	// #4830
  402e38:	29400363 	ldp	w3, w0, [x27]
  402e3c:	72b2a082 	movk	w2, #0x9504, lsl #16
  402e40:	6b0202df 	cmp	w22, w2
  402e44:	54fffe01 	b.ne	402e04 <_nl_load_domain+0x7e4>  // b.any
  402e48:	8b234034 	add	x20, x1, w3, uxtw
  402e4c:	17fffff1 	b	402e10 <_nl_load_domain+0x7f0>
  402e50:	f94057e0 	ldr	x0, [sp, #168]
  402e54:	b8787802 	ldr	w2, [x0, x24, lsl #2]
  402e58:	17fffeda 	b	4029c0 <_nl_load_domain+0x3a0>
  402e5c:	f94057e0 	ldr	x0, [sp, #168]
  402e60:	b8787802 	ldr	w2, [x0, x24, lsl #2]
  402e64:	17fffed6 	b	4029bc <_nl_load_domain+0x39c>
  402e68:	f9472ea1 	ldr	x1, [x21, #3672]
  402e6c:	b4000061 	cbz	x1, 402e78 <_nl_load_domain+0x858>
  402e70:	91020300 	add	x0, x24, #0x80
  402e74:	d503201f 	nop
  402e78:	f9401300 	ldr	x0, [x24, #32]
  402e7c:	17ffff49 	b	402ba0 <_nl_load_domain+0x580>
  402e80:	8b214361 	add	x1, x27, w1, uxtw
  402e84:	2a0003e0 	mov	w0, w0
  402e88:	f90057e1 	str	x1, [sp, #168]
  402e8c:	17fffeb1 	b	402950 <_nl_load_domain+0x330>
  402e90:	7100da5f 	cmp	w18, #0x36
  402e94:	54000241 	b.ne	402edc <_nl_load_domain+0x8bc>  // b.any
  402e98:	39401412 	ldrb	w18, [x0, #5]
  402e9c:	d2800001 	mov	x1, #0x0                   	// #0
  402ea0:	7100d25f 	cmp	w18, #0x34
  402ea4:	54ffd3c1 	b.ne	40291c <_nl_load_domain+0x2fc>  // b.any
  402ea8:	39401800 	ldrb	w0, [x0, #6]
  402eac:	35ffd380 	cbnz	w0, 40291c <_nl_load_domain+0x2fc>
  402eb0:	7101917f 	cmp	w11, #0x64
  402eb4:	540037c0 	b.eq	4035ac <_nl_load_domain+0xf8c>  // b.none
  402eb8:	35003771 	cbnz	w17, 4035a4 <_nl_load_domain+0xf84>
  402ebc:	35003ad0 	cbnz	w16, 403614 <_nl_load_domain+0xff4>
  402ec0:	35003a6f 	cbnz	w15, 40360c <_nl_load_domain+0xfec>
  402ec4:	7101e17f 	cmp	w11, #0x78
  402ec8:	540038e0 	b.eq	4035e4 <_nl_load_domain+0xfc4>  // b.none
  402ecc:	7101617f 	cmp	w11, #0x58
  402ed0:	54005441 	b.ne	403958 <_nl_load_domain+0x1338>  // b.any
  402ed4:	f94047e1 	ldr	x1, [sp, #136]
  402ed8:	17fffe91 	b	40291c <_nl_load_domain+0x2fc>
  402edc:	7101325f 	cmp	w18, #0x4c
  402ee0:	540004c1 	b.ne	402f78 <_nl_load_domain+0x958>  // b.any
  402ee4:	39401412 	ldrb	w18, [x0, #5]
  402ee8:	d2800001 	mov	x1, #0x0                   	// #0
  402eec:	7101165f 	cmp	w18, #0x45
  402ef0:	54ffd161 	b.ne	40291c <_nl_load_domain+0x2fc>  // b.any
  402ef4:	39401812 	ldrb	w18, [x0, #6]
  402ef8:	7101065f 	cmp	w18, #0x41
  402efc:	54ffd101 	b.ne	40291c <_nl_load_domain+0x2fc>  // b.any
  402f00:	39401c12 	ldrb	w18, [x0, #7]
  402f04:	71014e5f 	cmp	w18, #0x53
  402f08:	54ffd0a1 	b.ne	40291c <_nl_load_domain+0x2fc>  // b.any
  402f0c:	39402012 	ldrb	w18, [x0, #8]
  402f10:	7101525f 	cmp	w18, #0x54
  402f14:	54ffd041 	b.ne	40291c <_nl_load_domain+0x2fc>  // b.any
  402f18:	39402412 	ldrb	w18, [x0, #9]
  402f1c:	7100e25f 	cmp	w18, #0x38
  402f20:	54003ee0 	b.eq	4036fc <_nl_load_domain+0x10dc>  // b.none
  402f24:	7100c65f 	cmp	w18, #0x31
  402f28:	54003c80 	b.eq	4036b8 <_nl_load_domain+0x1098>  // b.none
  402f2c:	7100ce5f 	cmp	w18, #0x33
  402f30:	54003b61 	b.ne	40369c <_nl_load_domain+0x107c>  // b.any
  402f34:	39402812 	ldrb	w18, [x0, #10]
  402f38:	7100ca5f 	cmp	w18, #0x32
  402f3c:	54ffcf01 	b.ne	40291c <_nl_load_domain+0x2fc>  // b.any
  402f40:	39402c00 	ldrb	w0, [x0, #11]
  402f44:	35003a80 	cbnz	w0, 403694 <_nl_load_domain+0x1074>
  402f48:	7101917f 	cmp	w11, #0x64
  402f4c:	54003a00 	b.eq	40368c <_nl_load_domain+0x106c>  // b.none
  402f50:	350039b1 	cbnz	w17, 403684 <_nl_load_domain+0x1064>
  402f54:	35003950 	cbnz	w16, 40367c <_nl_load_domain+0x105c>
  402f58:	350038ef 	cbnz	w15, 403674 <_nl_load_domain+0x1054>
  402f5c:	7101e17f 	cmp	w11, #0x78
  402f60:	54003660 	b.eq	40362c <_nl_load_domain+0x100c>  // b.none
  402f64:	7101617f 	cmp	w11, #0x58
  402f68:	54004f81 	b.ne	403958 <_nl_load_domain+0x1338>  // b.any
  402f6c:	b0000281 	adrp	x1, 453000 <_IO_stdin_used+0xf0>
  402f70:	911ae021 	add	x1, x1, #0x6b8
  402f74:	17fffe6a 	b	40291c <_nl_load_domain+0x2fc>
  402f78:	71011a5f 	cmp	w18, #0x46
  402f7c:	54000441 	b.ne	403004 <_nl_load_domain+0x9e4>  // b.any
  402f80:	39401412 	ldrb	w18, [x0, #5]
  402f84:	d2800001 	mov	x1, #0x0                   	// #0
  402f88:	7101065f 	cmp	w18, #0x41
  402f8c:	54ffcc81 	b.ne	40291c <_nl_load_domain+0x2fc>  // b.any
  402f90:	39401812 	ldrb	w18, [x0, #6]
  402f94:	71014e5f 	cmp	w18, #0x53
  402f98:	54ffcc21 	b.ne	40291c <_nl_load_domain+0x2fc>  // b.any
  402f9c:	39401c12 	ldrb	w18, [x0, #7]
  402fa0:	7101525f 	cmp	w18, #0x54
  402fa4:	54ffcbc1 	b.ne	40291c <_nl_load_domain+0x2fc>  // b.any
  402fa8:	39402012 	ldrb	w18, [x0, #8]
  402fac:	7100e25f 	cmp	w18, #0x38
  402fb0:	540045e0 	b.eq	40386c <_nl_load_domain+0x124c>  // b.none
  402fb4:	7100c65f 	cmp	w18, #0x31
  402fb8:	540043a0 	b.eq	40382c <_nl_load_domain+0x120c>  // b.none
  402fbc:	7100ce5f 	cmp	w18, #0x33
  402fc0:	54004281 	b.ne	403810 <_nl_load_domain+0x11f0>  // b.any
  402fc4:	39402412 	ldrb	w18, [x0, #9]
  402fc8:	7100ca5f 	cmp	w18, #0x32
  402fcc:	54ffca81 	b.ne	40291c <_nl_load_domain+0x2fc>  // b.any
  402fd0:	39402800 	ldrb	w0, [x0, #10]
  402fd4:	350041a0 	cbnz	w0, 403808 <_nl_load_domain+0x11e8>
  402fd8:	7101917f 	cmp	w11, #0x64
  402fdc:	54004120 	b.eq	403800 <_nl_load_domain+0x11e0>  // b.none
  402fe0:	350040d1 	cbnz	w17, 4037f8 <_nl_load_domain+0x11d8>
  402fe4:	35004070 	cbnz	w16, 4037f0 <_nl_load_domain+0x11d0>
  402fe8:	3500400f 	cbnz	w15, 4037e8 <_nl_load_domain+0x11c8>
  402fec:	7101e17f 	cmp	w11, #0x78
  402ff0:	54003220 	b.eq	403634 <_nl_load_domain+0x1014>  // b.none
  402ff4:	7101617f 	cmp	w11, #0x58
  402ff8:	54004b01 	b.ne	403958 <_nl_load_domain+0x1338>  // b.any
  402ffc:	f94047e1 	ldr	x1, [sp, #136]
  403000:	17fffe47 	b	40291c <_nl_load_domain+0x2fc>
  403004:	7101365f 	cmp	w18, #0x4d
  403008:	54000681 	b.ne	4030d8 <_nl_load_domain+0xab8>  // b.any
  40300c:	39401412 	ldrb	w18, [x0, #5]
  403010:	d2800001 	mov	x1, #0x0                   	// #0
  403014:	7101065f 	cmp	w18, #0x41
  403018:	54ffc821 	b.ne	40291c <_nl_load_domain+0x2fc>  // b.any
  40301c:	39401812 	ldrb	w18, [x0, #6]
  403020:	7101625f 	cmp	w18, #0x58
  403024:	54ffc7c1 	b.ne	40291c <_nl_load_domain+0x2fc>  // b.any
  403028:	39401c00 	ldrb	w0, [x0, #7]
  40302c:	35ffc780 	cbnz	w0, 40291c <_nl_load_domain+0x2fc>
  403030:	7101917f 	cmp	w11, #0x64
  403034:	54002d40 	b.eq	4035dc <_nl_load_domain+0xfbc>  // b.none
  403038:	35002df1 	cbnz	w17, 4035f4 <_nl_load_domain+0xfd4>
  40303c:	35002d90 	cbnz	w16, 4035ec <_nl_load_domain+0xfcc>
  403040:	35002f2f 	cbnz	w15, 403624 <_nl_load_domain+0x1004>
  403044:	7101e17f 	cmp	w11, #0x78
  403048:	54002ea0 	b.eq	40361c <_nl_load_domain+0xffc>  // b.none
  40304c:	7101617f 	cmp	w11, #0x58
  403050:	54004841 	b.ne	403958 <_nl_load_domain+0x1338>  // b.any
  403054:	f94047e1 	ldr	x1, [sp, #136]
  403058:	17fffe31 	b	40291c <_nl_load_domain+0x2fc>
  40305c:	39401400 	ldrb	w0, [x0, #5]
  403060:	35ffc5e0 	cbnz	w0, 40291c <_nl_load_domain+0x2fc>
  403064:	7101917f 	cmp	w11, #0x64
  403068:	54002820 	b.eq	40356c <_nl_load_domain+0xf4c>  // b.none
  40306c:	35002851 	cbnz	w17, 403574 <_nl_load_domain+0xf54>
  403070:	35002870 	cbnz	w16, 40357c <_nl_load_domain+0xf5c>
  403074:	350028cf 	cbnz	w15, 40358c <_nl_load_domain+0xf6c>
  403078:	7101e17f 	cmp	w11, #0x78
  40307c:	54002840 	b.eq	403584 <_nl_load_domain+0xf64>  // b.none
  403080:	7101617f 	cmp	w11, #0x58
  403084:	540046a1 	b.ne	403958 <_nl_load_domain+0x1338>  // b.any
  403088:	90000281 	adrp	x1, 453000 <_IO_stdin_used+0xf0>
  40308c:	911ae021 	add	x1, x1, #0x6b8
  403090:	17fffe23 	b	40291c <_nl_load_domain+0x2fc>
  403094:	39401412 	ldrb	w18, [x0, #5]
  403098:	7100da5f 	cmp	w18, #0x36
  40309c:	54ffc401 	b.ne	40291c <_nl_load_domain+0x2fc>  // b.any
  4030a0:	39401800 	ldrb	w0, [x0, #6]
  4030a4:	35002600 	cbnz	w0, 403564 <_nl_load_domain+0xf44>
  4030a8:	7101917f 	cmp	w11, #0x64
  4030ac:	54002840 	b.eq	4035b4 <_nl_load_domain+0xf94>  // b.none
  4030b0:	350028b1 	cbnz	w17, 4035c4 <_nl_load_domain+0xfa4>
  4030b4:	35002850 	cbnz	w16, 4035bc <_nl_load_domain+0xf9c>
  4030b8:	350028ef 	cbnz	w15, 4035d4 <_nl_load_domain+0xfb4>
  4030bc:	7101e17f 	cmp	w11, #0x78
  4030c0:	54002860 	b.eq	4035cc <_nl_load_domain+0xfac>  // b.none
  4030c4:	7101617f 	cmp	w11, #0x58
  4030c8:	54004481 	b.ne	403958 <_nl_load_domain+0x1338>  // b.any
  4030cc:	90000281 	adrp	x1, 453000 <_IO_stdin_used+0xf0>
  4030d0:	911ae021 	add	x1, x1, #0x6b8
  4030d4:	17fffe12 	b	40291c <_nl_load_domain+0x2fc>
  4030d8:	7101425f 	cmp	w18, #0x50
  4030dc:	54002c81 	b.ne	40366c <_nl_load_domain+0x104c>  // b.any
  4030e0:	39401412 	ldrb	w18, [x0, #5]
  4030e4:	d2800001 	mov	x1, #0x0                   	// #0
  4030e8:	7101525f 	cmp	w18, #0x54
  4030ec:	54ffc181 	b.ne	40291c <_nl_load_domain+0x2fc>  // b.any
  4030f0:	39401812 	ldrb	w18, [x0, #6]
  4030f4:	71014a5f 	cmp	w18, #0x52
  4030f8:	54ffc121 	b.ne	40291c <_nl_load_domain+0x2fc>  // b.any
  4030fc:	39401c00 	ldrb	w0, [x0, #7]
  403100:	35ffc0e0 	cbnz	w0, 40291c <_nl_load_domain+0x2fc>
  403104:	7101917f 	cmp	w11, #0x64
  403108:	54002ae0 	b.eq	403664 <_nl_load_domain+0x1044>  // b.none
  40310c:	35002a91 	cbnz	w17, 40365c <_nl_load_domain+0x103c>
  403110:	35002a30 	cbnz	w16, 403654 <_nl_load_domain+0x1034>
  403114:	350029cf 	cbnz	w15, 40364c <_nl_load_domain+0x102c>
  403118:	7101e17f 	cmp	w11, #0x78
  40311c:	54002940 	b.eq	403644 <_nl_load_domain+0x1024>  // b.none
  403120:	7101617f 	cmp	w11, #0x58
  403124:	540041a1 	b.ne	403958 <_nl_load_domain+0x1338>  // b.any
  403128:	f94047e1 	ldr	x1, [sp, #136]
  40312c:	17fffdfc 	b	40291c <_nl_load_domain+0x2fc>
  403130:	f94053e1 	ldr	x1, [sp, #160]
  403134:	aa0003f6 	mov	x22, x0
  403138:	531f7800 	lsl	w0, w0, #1
  40313c:	f9003be4 	str	x4, [sp, #112]
  403140:	b9007fe3 	str	w3, [sp, #124]
  403144:	8b205020 	add	x0, x1, w0, uxtw #4
  403148:	94005552 	bl	418690 <__libc_malloc>
  40314c:	f90053e0 	str	x0, [sp, #160]
  403150:	b4ffd260 	cbz	x0, 402b9c <_nl_load_domain+0x57c>
  403154:	d37c7ec7 	ubfiz	x7, x22, #4, #32
  403158:	b9407fe3 	ldr	w3, [sp, #124]
  40315c:	8b070001 	add	x1, x0, x7
  403160:	f9005fe1 	str	x1, [sp, #184]
  403164:	f9406fe1 	ldr	x1, [sp, #216]
  403168:	8b070407 	add	x7, x0, x7, lsl #1
  40316c:	f9403be4 	ldr	x4, [sp, #112]
  403170:	8b0100f7 	add	x23, x7, x1
  403174:	f9006bfc 	str	x28, [sp, #208]
  403178:	d2800009 	mov	x9, #0x0                   	// #0
  40317c:	f94047fc 	ldr	x28, [sp, #136]
  403180:	52825bc8 	mov	w8, #0x12de                	// #4830
  403184:	f9001300 	str	x0, [x24, #32]
  403188:	72b2a088 	movk	w8, #0x9504, lsl #16
  40318c:	b900cbfa 	str	w26, [sp, #200]
  403190:	2a0303fa 	mov	w26, w3
  403194:	f9006ff8 	str	x24, [sp, #216]
  403198:	aa0903f8 	mov	x24, x9
  40319c:	f9007bf9 	str	x25, [sp, #240]
  4031a0:	aa1b03f9 	mov	x25, x27
  4031a4:	aa1703fb 	mov	x27, x23
  4031a8:	aa0403f7 	mov	x23, x4
  4031ac:	b90093ff 	str	wzr, [sp, #144]
  4031b0:	a90e53e7 	stp	x7, x20, [sp, #224]
  4031b4:	52800007 	mov	w7, #0x0                   	// #0
  4031b8:	6b08035f 	cmp	w26, w8
  4031bc:	54000560 	b.eq	403268 <_nl_load_domain+0xc48>  // b.none
  4031c0:	340016a7 	cbz	w7, 403494 <_nl_load_domain+0xe74>
  4031c4:	b8787b81 	ldr	w1, [x28, x24, lsl #2]
  4031c8:	5ac00821 	rev	w1, w1
  4031cc:	8b010321 	add	x1, x25, x1
  4031d0:	b9400820 	ldr	w0, [x1, #8]
  4031d4:	3100041f 	cmn	w0, #0x1
  4031d8:	54000541 	b.ne	403280 <_nl_load_domain+0xc60>  // b.any
  4031dc:	340016a7 	cbz	w7, 4034b0 <_nl_load_domain+0xe90>
  4031e0:	f9404be0 	ldr	x0, [sp, #144]
  4031e4:	f90047fc 	str	x28, [sp, #136]
  4031e8:	aa1b03fc 	mov	x28, x27
  4031ec:	b9007fff 	str	wzr, [sp, #124]
  4031f0:	d37c7c14 	ubfiz	x20, x0, #4, #32
  4031f4:	f9405fe0 	ldr	x0, [sp, #184]
  4031f8:	8b140000 	add	x0, x0, x20
  4031fc:	f9005be0 	str	x0, [sp, #176]
  403200:	f94053e0 	ldr	x0, [sp, #160]
  403204:	8b140000 	add	x0, x0, x20
  403208:	f90063e0 	str	x0, [sp, #192]
  40320c:	b9407fe0 	ldr	w0, [sp, #124]
  403210:	6b08035f 	cmp	w26, w8
  403214:	540004e0 	b.eq	4032b0 <_nl_load_domain+0xc90>  // b.none
  403218:	340018c0 	cbz	w0, 403530 <_nl_load_domain+0xf10>
  40321c:	f94047e0 	ldr	x0, [sp, #136]
  403220:	f9405bf6 	ldr	x22, [sp, #176]
  403224:	b8787800 	ldr	w0, [x0, x24, lsl #2]
  403228:	5ac00801 	rev	w1, w0
  40322c:	5ac00800 	rev	w0, w0
  403230:	8b000320 	add	x0, x25, x0
  403234:	b8614b34 	ldr	w20, [x25, w1, uxtw]
  403238:	5ac00a94 	rev	w20, w20
  40323c:	8b140334 	add	x20, x25, x20
  403240:	29408801 	ldp	w1, w2, [x0, #4]
  403244:	5ac00821 	rev	w1, w1
  403248:	3100045f 	cmn	w2, #0x1
  40324c:	54000461 	b.ne	4032d8 <_nl_load_domain+0xcb8>  // b.any
  403250:	a90052c1 	stp	x1, x20, [x22]
  403254:	b9407fe0 	ldr	w0, [sp, #124]
  403258:	35000700 	cbnz	w0, 403338 <_nl_load_domain+0xd18>
  40325c:	52800020 	mov	w0, #0x1                   	// #1
  403260:	b9007fe0 	str	w0, [sp, #124]
  403264:	17ffffea 	b	40320c <_nl_load_domain+0xbec>
  403268:	340013a7 	cbz	w7, 4034dc <_nl_load_domain+0xebc>
  40326c:	b8787b81 	ldr	w1, [x28, x24, lsl #2]
  403270:	8b010321 	add	x1, x25, x1
  403274:	b9400820 	ldr	w0, [x1, #8]
  403278:	3100041f 	cmn	w0, #0x1
  40327c:	54fffb00 	b.eq	4031dc <_nl_load_domain+0xbbc>  // b.none
  403280:	91001021 	add	x1, x1, #0x4
  403284:	14000005 	b	403298 <_nl_load_domain+0xc78>
  403288:	f8605ae0 	ldr	x0, [x23, w0, uxtw #3]
  40328c:	b4000600 	cbz	x0, 40334c <_nl_load_domain+0xd2c>
  403290:	b9400c20 	ldr	w0, [x1, #12]
  403294:	91002021 	add	x1, x1, #0x8
  403298:	6b08035f 	cmp	w26, w8
  40329c:	5ac00802 	rev	w2, w0
  4032a0:	1a801040 	csel	w0, w2, w0, ne  // ne = any
  4032a4:	3100041f 	cmn	w0, #0x1
  4032a8:	54ffff01 	b.ne	403288 <_nl_load_domain+0xc68>  // b.any
  4032ac:	17ffffcc 	b	4031dc <_nl_load_domain+0xbbc>
  4032b0:	34001320 	cbz	w0, 403514 <_nl_load_domain+0xef4>
  4032b4:	f94047e0 	ldr	x0, [sp, #136]
  4032b8:	f9405bf6 	ldr	x22, [sp, #176]
  4032bc:	b8787801 	ldr	w1, [x0, x24, lsl #2]
  4032c0:	8b010320 	add	x0, x25, x1
  4032c4:	b8616b34 	ldr	w20, [x25, x1]
  4032c8:	8b140334 	add	x20, x25, x20
  4032cc:	29408801 	ldp	w1, w2, [x0, #4]
  4032d0:	3100045f 	cmn	w2, #0x1
  4032d4:	54fffbe0 	b.eq	403250 <_nl_load_domain+0xc30>  // b.none
  4032d8:	9100101b 	add	x27, x0, #0x4
  4032dc:	f90006dc 	str	x28, [x22, #8]
  4032e0:	f9007ff6 	str	x22, [sp, #248]
  4032e4:	aa1c03f6 	mov	x22, x28
  4032e8:	29407360 	ldp	w0, w28, [x27]
  4032ec:	6b08035f 	cmp	w26, w8
  4032f0:	54000060 	b.eq	4032fc <_nl_load_domain+0xcdc>  // b.none
  4032f4:	5ac00800 	rev	w0, w0
  4032f8:	5ac00b9c 	rev	w28, w28
  4032fc:	35000de0 	cbnz	w0, 4034b8 <_nl_load_domain+0xe98>
  403300:	3100079f 	cmn	w28, #0x1
  403304:	54000fc0 	b.eq	4034fc <_nl_load_domain+0xedc>  // b.none
  403308:	f87c5afc 	ldr	x28, [x23, w28, uxtw #3]
  40330c:	b90073e8 	str	w8, [sp, #112]
  403310:	9100237b 	add	x27, x27, #0x8
  403314:	aa1c03e0 	mov	x0, x28
  403318:	97fff3fa 	bl	400300 <.plt+0x60>
  40331c:	aa0003e2 	mov	x2, x0
  403320:	aa1c03e1 	mov	x1, x28
  403324:	aa1603e0 	mov	x0, x22
  403328:	8b0202d6 	add	x22, x22, x2
  40332c:	97fff3e1 	bl	4002b0 <.plt+0x10>
  403330:	b94073e8 	ldr	w8, [sp, #112]
  403334:	17ffffed 	b	4032e8 <_nl_load_domain+0xcc8>
  403338:	b94093e0 	ldr	w0, [sp, #144]
  40333c:	aa1c03fb 	mov	x27, x28
  403340:	f94047fc 	ldr	x28, [sp, #136]
  403344:	11000400 	add	w0, w0, #0x1
  403348:	b90093e0 	str	w0, [sp, #144]
  40334c:	b9406be0 	ldr	w0, [sp, #104]
  403350:	91000718 	add	x24, x24, #0x1
  403354:	6b18001f 	cmp	w0, w24
  403358:	54fff2e8 	b.hi	4031b4 <_nl_load_domain+0xb94>  // b.pmore
  40335c:	b94093e1 	ldr	w1, [sp, #144]
  403360:	aa1903fb 	mov	x27, x25
  403364:	b9409be0 	ldr	w0, [sp, #152]
  403368:	2a1a03e3 	mov	w3, w26
  40336c:	aa1703e4 	mov	x4, x23
  403370:	b940cbfa 	ldr	w26, [sp, #200]
  403374:	a94d63fc 	ldp	x28, x24, [sp, #208]
  403378:	a94e53e7 	ldp	x7, x20, [sp, #224]
  40337c:	f9407bf9 	ldr	x25, [sp, #240]
  403380:	6b01001f 	cmp	w0, w1
  403384:	54002ea1 	b.ne	403958 <_nl_load_domain+0x1338>  // b.any
  403388:	b94063e6 	ldr	w6, [sp, #96]
  40338c:	52825bc8 	mov	w8, #0x12de                	// #4830
  403390:	f94043e5 	ldr	x5, [sp, #128]
  403394:	d2800000 	mov	x0, #0x0                   	// #0
  403398:	72b2a088 	movk	w8, #0x9504, lsl #16
  40339c:	b86078a1 	ldr	w1, [x5, x0, lsl #2]
  4033a0:	6b08007f 	cmp	w3, w8
  4033a4:	5ac00822 	rev	w2, w1
  4033a8:	1a811041 	csel	w1, w2, w1, ne  // ne = any
  4033ac:	b82078e1 	str	w1, [x7, x0, lsl #2]
  4033b0:	91000400 	add	x0, x0, #0x1
  4033b4:	6b0000df 	cmp	w6, w0
  4033b8:	54ffff28 	b.hi	40339c <_nl_load_domain+0xd7c>  // b.pmore
  4033bc:	f94053e0 	ldr	x0, [sp, #160]
  4033c0:	52800016 	mov	w22, #0x0                   	// #0
  4033c4:	a90653e4 	stp	x4, x20, [sp, #96]
  4033c8:	91002017 	add	x23, x0, #0x8
  4033cc:	b9409bf4 	ldr	w20, [sp, #152]
  4033d0:	f9003bf9 	str	x25, [sp, #112]
  4033d4:	aa1703f9 	mov	x25, x23
  4033d8:	2a1603f7 	mov	w23, w22
  4033dc:	aa1803f6 	mov	x22, x24
  4033e0:	aa0703f8 	mov	x24, x7
  4033e4:	f9400320 	ldr	x0, [x25]
  4033e8:	940007a6 	bl	405280 <__hash_string>
  4033ec:	b9405ac4 	ldr	w4, [x22, #88]
  4033f0:	51000882 	sub	w2, w4, #0x2
  4033f4:	1ac40801 	udiv	w1, w0, w4
  4033f8:	1ac20803 	udiv	w3, w0, w2
  4033fc:	1b048021 	msub	w1, w1, w4, w0
  403400:	1b028063 	msub	w3, w3, w2, w0
  403404:	8b214b02 	add	x2, x24, w1, uxtw #2
  403408:	b8615b00 	ldr	w0, [x24, w1, uxtw #2]
  40340c:	11000463 	add	w3, w3, #0x1
  403410:	4b030085 	sub	w5, w4, w3
  403414:	4b040064 	sub	w4, w3, w4
  403418:	34000140 	cbz	w0, 403440 <_nl_load_domain+0xe20>
  40341c:	d503201f 	nop
  403420:	0b040022 	add	w2, w1, w4
  403424:	6b05003f 	cmp	w1, w5
  403428:	0b030021 	add	w1, w1, w3
  40342c:	1a823020 	csel	w0, w1, w2, cc  // cc = lo, ul, last
  403430:	1a823021 	csel	w1, w1, w2, cc  // cc = lo, ul, last
  403434:	8b000b02 	add	x2, x24, x0, lsl #2
  403438:	b8607b00 	ldr	w0, [x24, x0, lsl #2]
  40343c:	35ffff20 	cbnz	w0, 403420 <_nl_load_domain+0xe00>
  403440:	b9402ac0 	ldr	w0, [x22, #40]
  403444:	91004339 	add	x25, x25, #0x10
  403448:	11000400 	add	w0, w0, #0x1
  40344c:	0b170000 	add	w0, w0, w23
  403450:	110006f7 	add	w23, w23, #0x1
  403454:	b9000040 	str	w0, [x2]
  403458:	6b17029f 	cmp	w20, w23
  40345c:	54fffc41 	b.ne	4033e4 <_nl_load_domain+0xdc4>  // b.any
  403460:	b9409be0 	ldr	w0, [sp, #152]
  403464:	aa1803e7 	mov	x7, x24
  403468:	b90042c0 	str	w0, [x22, #64]
  40346c:	aa1603f8 	mov	x24, x22
  403470:	f94053e0 	ldr	x0, [sp, #160]
  403474:	f90026c0 	str	x0, [x22, #72]
  403478:	f9405fe0 	ldr	x0, [sp, #184]
  40347c:	f9002ac0 	str	x0, [x22, #80]
  403480:	f90032c7 	str	x7, [x22, #96]
  403484:	b9006adf 	str	wzr, [x22, #104]
  403488:	a94653e4 	ldp	x4, x20, [sp, #96]
  40348c:	f9403bf9 	ldr	x25, [sp, #112]
  403490:	17fffd6c 	b	402a40 <_nl_load_domain+0x420>
  403494:	f94057e0 	ldr	x0, [sp, #168]
  403498:	b8787801 	ldr	w1, [x0, x24, lsl #2]
  40349c:	5ac00821 	rev	w1, w1
  4034a0:	8b010321 	add	x1, x25, x1
  4034a4:	b9400820 	ldr	w0, [x1, #8]
  4034a8:	3100041f 	cmn	w0, #0x1
  4034ac:	54ffeea1 	b.ne	403280 <_nl_load_domain+0xc60>  // b.any
  4034b0:	52800027 	mov	w7, #0x1                   	// #1
  4034b4:	17ffff41 	b	4031b8 <_nl_load_domain+0xb98>
  4034b8:	2a0003e2 	mov	w2, w0
  4034bc:	aa1403e1 	mov	x1, x20
  4034c0:	aa1603e0 	mov	x0, x22
  4034c4:	8b020294 	add	x20, x20, x2
  4034c8:	8b0202d6 	add	x22, x22, x2
  4034cc:	b90073e8 	str	w8, [sp, #112]
  4034d0:	97fff378 	bl	4002b0 <.plt+0x10>
  4034d4:	b94073e8 	ldr	w8, [sp, #112]
  4034d8:	17ffff8a 	b	403300 <_nl_load_domain+0xce0>
  4034dc:	f94057e0 	ldr	x0, [sp, #168]
  4034e0:	b8787801 	ldr	w1, [x0, x24, lsl #2]
  4034e4:	8b010321 	add	x1, x25, x1
  4034e8:	b9400820 	ldr	w0, [x1, #8]
  4034ec:	3100041f 	cmn	w0, #0x1
  4034f0:	54ffec81 	b.ne	403280 <_nl_load_domain+0xc60>  // b.any
  4034f4:	52800027 	mov	w7, #0x1                   	// #1
  4034f8:	17ffff30 	b	4031b8 <_nl_load_domain+0xb98>
  4034fc:	aa1603fc 	mov	x28, x22
  403500:	f9407ff6 	ldr	x22, [sp, #248]
  403504:	f94006c0 	ldr	x0, [x22, #8]
  403508:	cb000380 	sub	x0, x28, x0
  40350c:	f90002c0 	str	x0, [x22]
  403510:	17ffff51 	b	403254 <_nl_load_domain+0xc34>
  403514:	f94057e0 	ldr	x0, [sp, #168]
  403518:	f94063f6 	ldr	x22, [sp, #192]
  40351c:	b8787801 	ldr	w1, [x0, x24, lsl #2]
  403520:	8b010320 	add	x0, x25, x1
  403524:	b8616b34 	ldr	w20, [x25, x1]
  403528:	8b140334 	add	x20, x25, x20
  40352c:	17ffff68 	b	4032cc <_nl_load_domain+0xcac>
  403530:	f94057e0 	ldr	x0, [sp, #168]
  403534:	f94063f6 	ldr	x22, [sp, #192]
  403538:	b8787801 	ldr	w1, [x0, x24, lsl #2]
  40353c:	5ac00821 	rev	w1, w1
  403540:	8b010320 	add	x0, x25, x1
  403544:	b8616b34 	ldr	w20, [x25, x1]
  403548:	5ac00a94 	rev	w20, w20
  40354c:	8b140334 	add	x20, x25, x20
  403550:	17ffff3c 	b	403240 <_nl_load_domain+0xc20>
  403554:	a90573fb 	stp	x27, x28, [sp, #80]
  403558:	94007696 	bl	420fb0 <__stack_chk_fail>
  40355c:	d2800001 	mov	x1, #0x0                   	// #0
  403560:	17fffcef 	b	40291c <_nl_load_domain+0x2fc>
  403564:	d2800001 	mov	x1, #0x0                   	// #0
  403568:	17fffced 	b	40291c <_nl_load_domain+0x2fc>
  40356c:	f9404be1 	ldr	x1, [sp, #144]
  403570:	17fffceb 	b	40291c <_nl_load_domain+0x2fc>
  403574:	f9404fe1 	ldr	x1, [sp, #152]
  403578:	17fffce9 	b	40291c <_nl_load_domain+0x2fc>
  40357c:	aa0603e1 	mov	x1, x6
  403580:	17fffce7 	b	40291c <_nl_load_domain+0x2fc>
  403584:	aa0503e1 	mov	x1, x5
  403588:	17fffce5 	b	40291c <_nl_load_domain+0x2fc>
  40358c:	aa1e03e1 	mov	x1, x30
  403590:	17fffce3 	b	40291c <_nl_load_domain+0x2fc>
  403594:	f9404fe1 	ldr	x1, [sp, #152]
  403598:	17fffce1 	b	40291c <_nl_load_domain+0x2fc>
  40359c:	f9404be1 	ldr	x1, [sp, #144]
  4035a0:	17fffcdf 	b	40291c <_nl_load_domain+0x2fc>
  4035a4:	aa0d03e1 	mov	x1, x13
  4035a8:	17fffcdd 	b	40291c <_nl_load_domain+0x2fc>
  4035ac:	aa0e03e1 	mov	x1, x14
  4035b0:	17fffcdb 	b	40291c <_nl_load_domain+0x2fc>
  4035b4:	f9404be1 	ldr	x1, [sp, #144]
  4035b8:	17fffcd9 	b	40291c <_nl_load_domain+0x2fc>
  4035bc:	aa0603e1 	mov	x1, x6
  4035c0:	17fffcd7 	b	40291c <_nl_load_domain+0x2fc>
  4035c4:	f9404fe1 	ldr	x1, [sp, #152]
  4035c8:	17fffcd5 	b	40291c <_nl_load_domain+0x2fc>
  4035cc:	aa0503e1 	mov	x1, x5
  4035d0:	17fffcd3 	b	40291c <_nl_load_domain+0x2fc>
  4035d4:	aa1e03e1 	mov	x1, x30
  4035d8:	17fffcd1 	b	40291c <_nl_load_domain+0x2fc>
  4035dc:	aa0e03e1 	mov	x1, x14
  4035e0:	17fffccf 	b	40291c <_nl_load_domain+0x2fc>
  4035e4:	f9403be1 	ldr	x1, [sp, #112]
  4035e8:	17fffccd 	b	40291c <_nl_load_domain+0x2fc>
  4035ec:	aa0c03e1 	mov	x1, x12
  4035f0:	17fffccb 	b	40291c <_nl_load_domain+0x2fc>
  4035f4:	aa0d03e1 	mov	x1, x13
  4035f8:	17fffcc9 	b	40291c <_nl_load_domain+0x2fc>
  4035fc:	aa1e03e1 	mov	x1, x30
  403600:	17fffcc7 	b	40291c <_nl_load_domain+0x2fc>
  403604:	aa0603e1 	mov	x1, x6
  403608:	17fffcc5 	b	40291c <_nl_load_domain+0x2fc>
  40360c:	aa1703e1 	mov	x1, x23
  403610:	17fffcc3 	b	40291c <_nl_load_domain+0x2fc>
  403614:	aa0c03e1 	mov	x1, x12
  403618:	17fffcc1 	b	40291c <_nl_load_domain+0x2fc>
  40361c:	f9403be1 	ldr	x1, [sp, #112]
  403620:	17fffcbf 	b	40291c <_nl_load_domain+0x2fc>
  403624:	aa1703e1 	mov	x1, x23
  403628:	17fffcbd 	b	40291c <_nl_load_domain+0x2fc>
  40362c:	aa0503e1 	mov	x1, x5
  403630:	17fffcbb 	b	40291c <_nl_load_domain+0x2fc>
  403634:	f9403be1 	ldr	x1, [sp, #112]
  403638:	17fffcb9 	b	40291c <_nl_load_domain+0x2fc>
  40363c:	aa0503e1 	mov	x1, x5
  403640:	17fffcb7 	b	40291c <_nl_load_domain+0x2fc>
  403644:	f9403be1 	ldr	x1, [sp, #112]
  403648:	17fffcb5 	b	40291c <_nl_load_domain+0x2fc>
  40364c:	aa1703e1 	mov	x1, x23
  403650:	17fffcb3 	b	40291c <_nl_load_domain+0x2fc>
  403654:	aa0c03e1 	mov	x1, x12
  403658:	17fffcb1 	b	40291c <_nl_load_domain+0x2fc>
  40365c:	aa0d03e1 	mov	x1, x13
  403660:	17fffcaf 	b	40291c <_nl_load_domain+0x2fc>
  403664:	aa0e03e1 	mov	x1, x14
  403668:	17fffcad 	b	40291c <_nl_load_domain+0x2fc>
  40366c:	d2800001 	mov	x1, #0x0                   	// #0
  403670:	17fffcab 	b	40291c <_nl_load_domain+0x2fc>
  403674:	aa1e03e1 	mov	x1, x30
  403678:	17fffca9 	b	40291c <_nl_load_domain+0x2fc>
  40367c:	aa0603e1 	mov	x1, x6
  403680:	17fffca7 	b	40291c <_nl_load_domain+0x2fc>
  403684:	f9404fe1 	ldr	x1, [sp, #152]
  403688:	17fffca5 	b	40291c <_nl_load_domain+0x2fc>
  40368c:	f9404be1 	ldr	x1, [sp, #144]
  403690:	17fffca3 	b	40291c <_nl_load_domain+0x2fc>
  403694:	d2800001 	mov	x1, #0x0                   	// #0
  403698:	17fffca1 	b	40291c <_nl_load_domain+0x2fc>
  40369c:	7100da5f 	cmp	w18, #0x36
  4036a0:	54ff93e1 	b.ne	40291c <_nl_load_domain+0x2fc>  // b.any
  4036a4:	39402801 	ldrb	w1, [x0, #10]
  4036a8:	7100d03f 	cmp	w1, #0x34
  4036ac:	54000440 	b.eq	403734 <_nl_load_domain+0x1114>  // b.none
  4036b0:	d2800001 	mov	x1, #0x0                   	// #0
  4036b4:	17fffc9a 	b	40291c <_nl_load_domain+0x2fc>
  4036b8:	39402812 	ldrb	w18, [x0, #10]
  4036bc:	7100da5f 	cmp	w18, #0x36
  4036c0:	54ff92e1 	b.ne	40291c <_nl_load_domain+0x2fc>  // b.any
  4036c4:	39402c00 	ldrb	w0, [x0, #11]
  4036c8:	35ff92a0 	cbnz	w0, 40291c <_nl_load_domain+0x2fc>
  4036cc:	7101917f 	cmp	w11, #0x64
  4036d0:	54000880 	b.eq	4037e0 <_nl_load_domain+0x11c0>  // b.none
  4036d4:	35000831 	cbnz	w17, 4037d8 <_nl_load_domain+0x11b8>
  4036d8:	350007d0 	cbnz	w16, 4037d0 <_nl_load_domain+0x11b0>
  4036dc:	3500076f 	cbnz	w15, 4037c8 <_nl_load_domain+0x11a8>
  4036e0:	7101e17f 	cmp	w11, #0x78
  4036e4:	54000420 	b.eq	403768 <_nl_load_domain+0x1148>  // b.none
  4036e8:	7101617f 	cmp	w11, #0x58
  4036ec:	54001361 	b.ne	403958 <_nl_load_domain+0x1338>  // b.any
  4036f0:	90000281 	adrp	x1, 453000 <_IO_stdin_used+0xf0>
  4036f4:	911ae021 	add	x1, x1, #0x6b8
  4036f8:	17fffc89 	b	40291c <_nl_load_domain+0x2fc>
  4036fc:	39402800 	ldrb	w0, [x0, #10]
  403700:	35ff90e0 	cbnz	w0, 40291c <_nl_load_domain+0x2fc>
  403704:	7101917f 	cmp	w11, #0x64
  403708:	540005c0 	b.eq	4037c0 <_nl_load_domain+0x11a0>  // b.none
  40370c:	35000571 	cbnz	w17, 4037b8 <_nl_load_domain+0x1198>
  403710:	35000510 	cbnz	w16, 4037b0 <_nl_load_domain+0x1190>
  403714:	350004af 	cbnz	w15, 4037a8 <_nl_load_domain+0x1188>
  403718:	7101e17f 	cmp	w11, #0x78
  40371c:	540002a0 	b.eq	403770 <_nl_load_domain+0x1150>  // b.none
  403720:	7101617f 	cmp	w11, #0x58
  403724:	540011a1 	b.ne	403958 <_nl_load_domain+0x1338>  // b.any
  403728:	90000281 	adrp	x1, 453000 <_IO_stdin_used+0xf0>
  40372c:	911ae021 	add	x1, x1, #0x6b8
  403730:	17fffc7b 	b	40291c <_nl_load_domain+0x2fc>
  403734:	39402c00 	ldrb	w0, [x0, #11]
  403738:	35000340 	cbnz	w0, 4037a0 <_nl_load_domain+0x1180>
  40373c:	7101917f 	cmp	w11, #0x64
  403740:	540002c0 	b.eq	403798 <_nl_load_domain+0x1178>  // b.none
  403744:	35000271 	cbnz	w17, 403790 <_nl_load_domain+0x1170>
  403748:	35000210 	cbnz	w16, 403788 <_nl_load_domain+0x1168>
  40374c:	350001af 	cbnz	w15, 403780 <_nl_load_domain+0x1160>
  403750:	7101e17f 	cmp	w11, #0x78
  403754:	54000120 	b.eq	403778 <_nl_load_domain+0x1158>  // b.none
  403758:	7101617f 	cmp	w11, #0x58
  40375c:	54000fe1 	b.ne	403958 <_nl_load_domain+0x1338>  // b.any
  403760:	f94047e1 	ldr	x1, [sp, #136]
  403764:	17fffc6e 	b	40291c <_nl_load_domain+0x2fc>
  403768:	aa0503e1 	mov	x1, x5
  40376c:	17fffc6c 	b	40291c <_nl_load_domain+0x2fc>
  403770:	aa0503e1 	mov	x1, x5
  403774:	17fffc6a 	b	40291c <_nl_load_domain+0x2fc>
  403778:	f9403be1 	ldr	x1, [sp, #112]
  40377c:	17fffc68 	b	40291c <_nl_load_domain+0x2fc>
  403780:	aa1703e1 	mov	x1, x23
  403784:	17fffc66 	b	40291c <_nl_load_domain+0x2fc>
  403788:	aa0c03e1 	mov	x1, x12
  40378c:	17fffc64 	b	40291c <_nl_load_domain+0x2fc>
  403790:	aa0d03e1 	mov	x1, x13
  403794:	17fffc62 	b	40291c <_nl_load_domain+0x2fc>
  403798:	aa0e03e1 	mov	x1, x14
  40379c:	17fffc60 	b	40291c <_nl_load_domain+0x2fc>
  4037a0:	d2800001 	mov	x1, #0x0                   	// #0
  4037a4:	17fffc5e 	b	40291c <_nl_load_domain+0x2fc>
  4037a8:	aa1e03e1 	mov	x1, x30
  4037ac:	17fffc5c 	b	40291c <_nl_load_domain+0x2fc>
  4037b0:	aa0603e1 	mov	x1, x6
  4037b4:	17fffc5a 	b	40291c <_nl_load_domain+0x2fc>
  4037b8:	f9404fe1 	ldr	x1, [sp, #152]
  4037bc:	17fffc58 	b	40291c <_nl_load_domain+0x2fc>
  4037c0:	f9404be1 	ldr	x1, [sp, #144]
  4037c4:	17fffc56 	b	40291c <_nl_load_domain+0x2fc>
  4037c8:	aa1e03e1 	mov	x1, x30
  4037cc:	17fffc54 	b	40291c <_nl_load_domain+0x2fc>
  4037d0:	aa0603e1 	mov	x1, x6
  4037d4:	17fffc52 	b	40291c <_nl_load_domain+0x2fc>
  4037d8:	f9404fe1 	ldr	x1, [sp, #152]
  4037dc:	17fffc50 	b	40291c <_nl_load_domain+0x2fc>
  4037e0:	f9404be1 	ldr	x1, [sp, #144]
  4037e4:	17fffc4e 	b	40291c <_nl_load_domain+0x2fc>
  4037e8:	aa1703e1 	mov	x1, x23
  4037ec:	17fffc4c 	b	40291c <_nl_load_domain+0x2fc>
  4037f0:	aa0c03e1 	mov	x1, x12
  4037f4:	17fffc4a 	b	40291c <_nl_load_domain+0x2fc>
  4037f8:	aa0d03e1 	mov	x1, x13
  4037fc:	17fffc48 	b	40291c <_nl_load_domain+0x2fc>
  403800:	aa0e03e1 	mov	x1, x14
  403804:	17fffc46 	b	40291c <_nl_load_domain+0x2fc>
  403808:	d2800001 	mov	x1, #0x0                   	// #0
  40380c:	17fffc44 	b	40291c <_nl_load_domain+0x2fc>
  403810:	7100da5f 	cmp	w18, #0x36
  403814:	54ff8841 	b.ne	40291c <_nl_load_domain+0x2fc>  // b.any
  403818:	39402401 	ldrb	w1, [x0, #9]
  40381c:	7100d03f 	cmp	w1, #0x34
  403820:	54000420 	b.eq	4038a4 <_nl_load_domain+0x1284>  // b.none
  403824:	d2800001 	mov	x1, #0x0                   	// #0
  403828:	17fffc3d 	b	40291c <_nl_load_domain+0x2fc>
  40382c:	39402412 	ldrb	w18, [x0, #9]
  403830:	7100da5f 	cmp	w18, #0x36
  403834:	54ff8741 	b.ne	40291c <_nl_load_domain+0x2fc>  // b.any
  403838:	39402800 	ldrb	w0, [x0, #10]
  40383c:	35ff8700 	cbnz	w0, 40291c <_nl_load_domain+0x2fc>
  403840:	7101917f 	cmp	w11, #0x64
  403844:	54000860 	b.eq	403950 <_nl_load_domain+0x1330>  // b.none
  403848:	35000811 	cbnz	w17, 403948 <_nl_load_domain+0x1328>
  40384c:	350007b0 	cbnz	w16, 403940 <_nl_load_domain+0x1320>
  403850:	3500074f 	cbnz	w15, 403938 <_nl_load_domain+0x1318>
  403854:	7101e17f 	cmp	w11, #0x78
  403858:	54000400 	b.eq	4038d8 <_nl_load_domain+0x12b8>  // b.none
  40385c:	7101617f 	cmp	w11, #0x58
  403860:	540007c1 	b.ne	403958 <_nl_load_domain+0x1338>  // b.any
  403864:	f94047e1 	ldr	x1, [sp, #136]
  403868:	17fffc2d 	b	40291c <_nl_load_domain+0x2fc>
  40386c:	39402400 	ldrb	w0, [x0, #9]
  403870:	35ff8560 	cbnz	w0, 40291c <_nl_load_domain+0x2fc>
  403874:	7101917f 	cmp	w11, #0x64
  403878:	540005c0 	b.eq	403930 <_nl_load_domain+0x1310>  // b.none
  40387c:	35000571 	cbnz	w17, 403928 <_nl_load_domain+0x1308>
  403880:	35000510 	cbnz	w16, 403920 <_nl_load_domain+0x1300>
  403884:	350004af 	cbnz	w15, 403918 <_nl_load_domain+0x12f8>
  403888:	7101e17f 	cmp	w11, #0x78
  40388c:	540002a0 	b.eq	4038e0 <_nl_load_domain+0x12c0>  // b.none
  403890:	7101617f 	cmp	w11, #0x58
  403894:	54000621 	b.ne	403958 <_nl_load_domain+0x1338>  // b.any
  403898:	90000281 	adrp	x1, 453000 <_IO_stdin_used+0xf0>
  40389c:	911ae021 	add	x1, x1, #0x6b8
  4038a0:	17fffc1f 	b	40291c <_nl_load_domain+0x2fc>
  4038a4:	39402800 	ldrb	w0, [x0, #10]
  4038a8:	35000340 	cbnz	w0, 403910 <_nl_load_domain+0x12f0>
  4038ac:	7101917f 	cmp	w11, #0x64
  4038b0:	540002c0 	b.eq	403908 <_nl_load_domain+0x12e8>  // b.none
  4038b4:	35000271 	cbnz	w17, 403900 <_nl_load_domain+0x12e0>
  4038b8:	35000210 	cbnz	w16, 4038f8 <_nl_load_domain+0x12d8>
  4038bc:	350001af 	cbnz	w15, 4038f0 <_nl_load_domain+0x12d0>
  4038c0:	7101e17f 	cmp	w11, #0x78
  4038c4:	54000120 	b.eq	4038e8 <_nl_load_domain+0x12c8>  // b.none
  4038c8:	7101617f 	cmp	w11, #0x58
  4038cc:	54000461 	b.ne	403958 <_nl_load_domain+0x1338>  // b.any
  4038d0:	f94047e1 	ldr	x1, [sp, #136]
  4038d4:	17fffc12 	b	40291c <_nl_load_domain+0x2fc>
  4038d8:	f9403be1 	ldr	x1, [sp, #112]
  4038dc:	17fffc10 	b	40291c <_nl_load_domain+0x2fc>
  4038e0:	aa0503e1 	mov	x1, x5
  4038e4:	17fffc0e 	b	40291c <_nl_load_domain+0x2fc>
  4038e8:	f9403be1 	ldr	x1, [sp, #112]
  4038ec:	17fffc0c 	b	40291c <_nl_load_domain+0x2fc>
  4038f0:	aa1703e1 	mov	x1, x23
  4038f4:	17fffc0a 	b	40291c <_nl_load_domain+0x2fc>
  4038f8:	aa0c03e1 	mov	x1, x12
  4038fc:	17fffc08 	b	40291c <_nl_load_domain+0x2fc>
  403900:	aa0d03e1 	mov	x1, x13
  403904:	17fffc06 	b	40291c <_nl_load_domain+0x2fc>
  403908:	aa0e03e1 	mov	x1, x14
  40390c:	17fffc04 	b	40291c <_nl_load_domain+0x2fc>
  403910:	d2800001 	mov	x1, #0x0                   	// #0
  403914:	17fffc02 	b	40291c <_nl_load_domain+0x2fc>
  403918:	aa1e03e1 	mov	x1, x30
  40391c:	17fffc00 	b	40291c <_nl_load_domain+0x2fc>
  403920:	aa0603e1 	mov	x1, x6
  403924:	17fffbfe 	b	40291c <_nl_load_domain+0x2fc>
  403928:	f9404fe1 	ldr	x1, [sp, #152]
  40392c:	17fffbfc 	b	40291c <_nl_load_domain+0x2fc>
  403930:	f9404be1 	ldr	x1, [sp, #144]
  403934:	17fffbfa 	b	40291c <_nl_load_domain+0x2fc>
  403938:	aa1703e1 	mov	x1, x23
  40393c:	17fffbf8 	b	40291c <_nl_load_domain+0x2fc>
  403940:	aa0c03e1 	mov	x1, x12
  403944:	17fffbf6 	b	40291c <_nl_load_domain+0x2fc>
  403948:	aa0d03e1 	mov	x1, x13
  40394c:	17fffbf4 	b	40291c <_nl_load_domain+0x2fc>
  403950:	aa0e03e1 	mov	x1, x14
  403954:	17fffbf2 	b	40291c <_nl_load_domain+0x2fc>
  403958:	97fff27a 	bl	400340 <abort>
  40395c:	d503201f 	nop

0000000000403960 <alias_compare>:
  403960:	f9400000 	ldr	x0, [x0]
  403964:	d0000422 	adrp	x2, 489000 <_nl_C_LC_IDENTIFICATION+0xa8>
  403968:	f9400021 	ldr	x1, [x1]
  40396c:	91290042 	add	x2, x2, #0xa40
  403970:	14005ffc 	b	41b960 <__strcasecmp_l>

0000000000403974 <read_alias_file>:
  403974:	d10943ff 	sub	sp, sp, #0x250
  403978:	a9007bfd 	stp	x29, x30, [sp]
  40397c:	910003fd 	mov	x29, sp
  403980:	a90153f3 	stp	x19, x20, [sp, #16]
  403984:	93407c33 	sxtw	x19, w1
  403988:	91007662 	add	x2, x19, #0x1d
  40398c:	a90363f7 	stp	x23, x24, [sp, #48]
  403990:	d0000438 	adrp	x24, 489000 <_nl_C_LC_IDENTIFICATION+0xa8>
  403994:	aa0003e1 	mov	x1, x0
  403998:	927cec40 	and	x0, x2, #0xfffffffffffffff0
  40399c:	a9025bf5 	stp	x21, x22, [sp, #32]
  4039a0:	aa1303e2 	mov	x2, x19
  4039a4:	f945df03 	ldr	x3, [x24, #3000]
  4039a8:	a9046bf9 	stp	x25, x26, [sp, #64]
  4039ac:	aa1303f4 	mov	x20, x19
  4039b0:	a90573fb 	stp	x27, x28, [sp, #80]
  4039b4:	cb2063ff 	sub	sp, sp, x0
  4039b8:	910003e4 	mov	x4, sp
  4039bc:	f9400060 	ldr	x0, [x3]
  4039c0:	f90127a0 	str	x0, [x29, #584]
  4039c4:	d2800000 	mov	x0, #0x0                   	// #0
  4039c8:	aa0403e0 	mov	x0, x4
  4039cc:	97fff239 	bl	4002b0 <.plt+0x10>
  4039d0:	8b130013 	add	x19, x0, x19
  4039d4:	90000282 	adrp	x2, 453000 <_IO_stdin_used+0xf0>
  4039d8:	91072042 	add	x2, x2, #0x1c8
  4039dc:	90000281 	adrp	x1, 453000 <_IO_stdin_used+0xf0>
  4039e0:	91070021 	add	x1, x1, #0x1c0
  4039e4:	f9400044 	ldr	x4, [x2]
  4039e8:	f834c804 	str	x4, [x0, w20, sxtw]
  4039ec:	f8406042 	ldur	x2, [x2, #6]
  4039f0:	f8006262 	stur	x2, [x19, #6]
  4039f4:	94002433 	bl	40cac0 <_IO_new_fopen>
  4039f8:	b4001960 	cbz	x0, 403d24 <read_alias_file+0x3b0>
  4039fc:	b9400001 	ldr	w1, [x0]
  403a00:	aa0003f5 	mov	x21, x0
  403a04:	9102e3b4 	add	x20, x29, #0xb8
  403a08:	d2800019 	mov	x25, #0x0                   	// #0
  403a0c:	32110022 	orr	w2, w1, #0x8000
  403a10:	b9000002 	str	w2, [x0]
  403a14:	37201a81 	tbnz	w1, #4, 403d64 <read_alias_file+0x3f0>
  403a18:	d0000420 	adrp	x0, 489000 <_nl_C_LC_IDENTIFICATION+0xa8>
  403a1c:	f9475800 	ldr	x0, [x0, #3760]
  403a20:	d53bd056 	mrs	x22, tpidr_el0
  403a24:	b0000457 	adrp	x23, 48c000 <object.0+0x28>
  403a28:	9125c2f7 	add	x23, x23, #0x970
  403a2c:	8b0002d6 	add	x22, x22, x0
  403a30:	aa1503e2 	mov	x2, x21
  403a34:	aa1403e0 	mov	x0, x20
  403a38:	52803201 	mov	w1, #0x190                 	// #400
  403a3c:	94002cfd 	bl	40ee30 <__fgets_unlocked>
  403a40:	b40002c0 	cbz	x0, 403a98 <read_alias_file+0x124>
  403a44:	52800141 	mov	w1, #0xa                   	// #10
  403a48:	aa1403e0 	mov	x0, x20
  403a4c:	940059dd 	bl	41a1c0 <strchr>
  403a50:	aa1403f3 	mov	x19, x20
  403a54:	3942e3a1 	ldrb	w1, [x29, #184]
  403a58:	aa0003fb 	mov	x27, x0
  403a5c:	f94002c3 	ldr	x3, [x22]
  403a60:	d37f1c22 	ubfiz	x2, x1, #1, #8
  403a64:	78626862 	ldrh	w2, [x3, x2]
  403a68:	366800c2 	tbz	w2, #13, 403a80 <read_alias_file+0x10c>
  403a6c:	d503201f 	nop
  403a70:	38401e61 	ldrb	w1, [x19, #1]!
  403a74:	d37f1c22 	ubfiz	x2, x1, #1, #8
  403a78:	78626862 	ldrh	w2, [x3, x2]
  403a7c:	376fffa2 	tbnz	w2, #13, 403a70 <read_alias_file+0xfc>
  403a80:	71008c3f 	cmp	w1, #0x23
  403a84:	7a401824 	ccmp	w1, #0x0, #0x4, ne  // ne = any
  403a88:	54000521 	b.ne	403b2c <read_alias_file+0x1b8>  // b.any
  403a8c:	b400045b 	cbz	x27, 403b14 <read_alias_file+0x1a0>
  403a90:	b94002a0 	ldr	w0, [x21]
  403a94:	3627fce0 	tbz	w0, #4, 403a30 <read_alias_file+0xbc>
  403a98:	aa1503e0 	mov	x0, x21
  403a9c:	940022bd 	bl	40c590 <_IO_new_fclose>
  403aa0:	b4000139 	cbz	x25, 403ac4 <read_alias_file+0x150>
  403aa4:	b0000441 	adrp	x1, 48c000 <object.0+0x28>
  403aa8:	d0000440 	adrp	x0, 48d000 <known_derivations>
  403aac:	90000003 	adrp	x3, 403000 <_nl_load_domain+0x9e0>
  403ab0:	d2800202 	mov	x2, #0x10                  	// #16
  403ab4:	f944b821 	ldr	x1, [x1, #2416]
  403ab8:	91258063 	add	x3, x3, #0x960
  403abc:	f942d400 	ldr	x0, [x0, #1448]
  403ac0:	94000861 	bl	405c44 <qsort>
  403ac4:	f945df18 	ldr	x24, [x24, #3000]
  403ac8:	f94127a0 	ldr	x0, [x29, #584]
  403acc:	f9400301 	ldr	x1, [x24]
  403ad0:	eb010000 	subs	x0, x0, x1
  403ad4:	d2800001 	mov	x1, #0x0                   	// #0
  403ad8:	540014a1 	b.ne	403d6c <read_alias_file+0x3f8>  // b.any
  403adc:	910003bf 	mov	sp, x29
  403ae0:	aa1903e0 	mov	x0, x25
  403ae4:	a9407bfd 	ldp	x29, x30, [sp]
  403ae8:	a94153f3 	ldp	x19, x20, [sp, #16]
  403aec:	a9425bf5 	ldp	x21, x22, [sp, #32]
  403af0:	a94363f7 	ldp	x23, x24, [sp, #48]
  403af4:	a9446bf9 	ldp	x25, x26, [sp, #64]
  403af8:	a94573fb 	ldp	x27, x28, [sp, #80]
  403afc:	910943ff 	add	sp, sp, #0x250
  403b00:	d65f03c0 	ret
  403b04:	aa1403e0 	mov	x0, x20
  403b08:	52800141 	mov	w1, #0xa                   	// #10
  403b0c:	940059ad 	bl	41a1c0 <strchr>
  403b10:	b5fffc00 	cbnz	x0, 403a90 <read_alias_file+0x11c>
  403b14:	aa1503e2 	mov	x2, x21
  403b18:	aa1403e0 	mov	x0, x20
  403b1c:	52803201 	mov	w1, #0x190                 	// #400
  403b20:	94002cc4 	bl	40ee30 <__fgets_unlocked>
  403b24:	b5ffff00 	cbnz	x0, 403b04 <read_alias_file+0x190>
  403b28:	17ffffda 	b	403a90 <read_alias_file+0x11c>
  403b2c:	39400661 	ldrb	w1, [x19, #1]
  403b30:	9100067a 	add	x26, x19, #0x1
  403b34:	35000061 	cbnz	w1, 403b40 <read_alias_file+0x1cc>
  403b38:	14000009 	b	403b5c <read_alias_file+0x1e8>
  403b3c:	34000101 	cbz	w1, 403b5c <read_alias_file+0x1e8>
  403b40:	d37f1c22 	ubfiz	x2, x1, #1, #8
  403b44:	aa1a03e4 	mov	x4, x26
  403b48:	39400741 	ldrb	w1, [x26, #1]
  403b4c:	9100075a 	add	x26, x26, #0x1
  403b50:	78626862 	ldrh	w2, [x3, x2]
  403b54:	366fff42 	tbz	w2, #13, 403b3c <read_alias_file+0x1c8>
  403b58:	3900009f 	strb	wzr, [x4]
  403b5c:	d37f1c20 	ubfiz	x0, x1, #1, #8
  403b60:	78606860 	ldrh	w0, [x3, x0]
  403b64:	366800a0 	tbz	w0, #13, 403b78 <read_alias_file+0x204>
  403b68:	38401f41 	ldrb	w1, [x26, #1]!
  403b6c:	d37f1c22 	ubfiz	x2, x1, #1, #8
  403b70:	78626862 	ldrh	w2, [x3, x2]
  403b74:	376fffa2 	tbnz	w2, #13, 403b68 <read_alias_file+0x1f4>
  403b78:	34fff8a1 	cbz	w1, 403a8c <read_alias_file+0x118>
  403b7c:	39400741 	ldrb	w1, [x26, #1]
  403b80:	91000740 	add	x0, x26, #0x1
  403b84:	35000081 	cbnz	w1, 403b94 <read_alias_file+0x220>
  403b88:	1400000a 	b	403bb0 <read_alias_file+0x23c>
  403b8c:	38401c01 	ldrb	w1, [x0, #1]!
  403b90:	34000101 	cbz	w1, 403bb0 <read_alias_file+0x23c>
  403b94:	d37f1c22 	ubfiz	x2, x1, #1, #8
  403b98:	78626862 	ldrh	w2, [x3, x2]
  403b9c:	366fff82 	tbz	w2, #13, 403b8c <read_alias_file+0x218>
  403ba0:	7100283f 	cmp	w1, #0xa
  403ba4:	54000b61 	b.ne	403d10 <read_alias_file+0x39c>  // b.any
  403ba8:	52814001 	mov	w1, #0xa00                 	// #2560
  403bac:	79000001 	strh	w1, [x0]
  403bb0:	a94002fc 	ldp	x28, x0, [x23]
  403bb4:	d0000445 	adrp	x5, 48d000 <known_derivations>
  403bb8:	eb00039f 	cmp	x28, x0
  403bbc:	54000922 	b.cs	403ce0 <read_alias_file+0x36c>  // b.hs, b.nlast
  403bc0:	aa1303e0 	mov	x0, x19
  403bc4:	f90053a5 	str	x5, [x29, #160]
  403bc8:	97fff1ce 	bl	400300 <.plt+0x60>
  403bcc:	aa0003e2 	mov	x2, x0
  403bd0:	91000442 	add	x2, x2, #0x1
  403bd4:	aa1a03e0 	mov	x0, x26
  403bd8:	f90057a2 	str	x2, [x29, #168]
  403bdc:	97fff1c9 	bl	400300 <.plt+0x60>
  403be0:	91000403 	add	x3, x0, #0x1
  403be4:	a94a0ba5 	ldp	x5, x2, [x29, #160]
  403be8:	a94106ea 	ldp	x10, x1, [x23, #16]
  403bec:	9116a0a7 	add	x7, x5, #0x5a8
  403bf0:	8b020149 	add	x9, x10, x2
  403bf4:	8b030128 	add	x8, x9, x3
  403bf8:	f94004e6 	ldr	x6, [x7, #8]
  403bfc:	eb01011f 	cmp	x8, x1
  403c00:	54000389 	b.ls	403c70 <read_alias_file+0x2fc>  // b.plast
  403c04:	8b030044 	add	x4, x2, x3
  403c08:	d280800b 	mov	x11, #0x400                 	// #1024
  403c0c:	eb0b009f 	cmp	x4, x11
  403c10:	aa0603e0 	mov	x0, x6
  403c14:	9a8b2084 	csel	x4, x4, x11, cs  // cs = hs, nlast
  403c18:	a9069fa5 	stp	x5, x7, [x29, #104]
  403c1c:	8b010081 	add	x1, x4, x1
  403c20:	a907a7a8 	stp	x8, x9, [x29, #120]
  403c24:	a9088faa 	stp	x10, x3, [x29, #136]
  403c28:	a9099ba2 	stp	x2, x6, [x29, #152]
  403c2c:	f90057a1 	str	x1, [x29, #168]
  403c30:	94005490 	bl	418e70 <__libc_realloc>
  403c34:	aa0003e4 	mov	x4, x0
  403c38:	b4fff300 	cbz	x0, 403a98 <read_alias_file+0x124>
  403c3c:	a9469fa5 	ldp	x5, x7, [x29, #104]
  403c40:	a9499ba2 	ldp	x2, x6, [x29, #152]
  403c44:	a947a7a8 	ldp	x8, x9, [x29, #120]
  403c48:	f94000eb 	ldr	x11, [x7]
  403c4c:	eb06001f 	cmp	x0, x6
  403c50:	a9488faa 	ldp	x10, x3, [x29, #136]
  403c54:	f94057a1 	ldr	x1, [x29, #168]
  403c58:	540006a1 	b.ne	403d2c <read_alias_file+0x3b8>  // b.any
  403c5c:	d37cef87 	lsl	x7, x28, #4
  403c60:	9116a0a5 	add	x5, x5, #0x5a8
  403c64:	f9000ee1 	str	x1, [x23, #24]
  403c68:	f90004a4 	str	x4, [x5, #8]
  403c6c:	14000004 	b	403c7c <read_alias_file+0x308>
  403c70:	f942d4ab 	ldr	x11, [x5, #1448]
  403c74:	aa0603e4 	mov	x4, x6
  403c78:	d37cef87 	lsl	x7, x28, #4
  403c7c:	8b070165 	add	x5, x11, x7
  403c80:	8b0a0080 	add	x0, x4, x10
  403c84:	aa1303e1 	mov	x1, x19
  403c88:	a907a3a3 	stp	x3, x8, [x29, #120]
  403c8c:	9100079c 	add	x28, x28, #0x1
  403c90:	a9089fa9 	stp	x9, x7, [x29, #136]
  403c94:	91000739 	add	x25, x25, #0x1
  403c98:	a90997ab 	stp	x11, x5, [x29, #152]
  403c9c:	f90057a4 	str	x4, [x29, #168]
  403ca0:	97fff184 	bl	4002b0 <.plt+0x10>
  403ca4:	a9489fa9 	ldp	x9, x7, [x29, #136]
  403ca8:	aa1a03e1 	mov	x1, x26
  403cac:	f9404fab 	ldr	x11, [x29, #152]
  403cb0:	f9403fa3 	ldr	x3, [x29, #120]
  403cb4:	f94057a4 	ldr	x4, [x29, #168]
  403cb8:	f8276960 	str	x0, [x11, x7]
  403cbc:	aa0303e2 	mov	x2, x3
  403cc0:	8b090080 	add	x0, x4, x9
  403cc4:	97fff17b 	bl	4002b0 <.plt+0x10>
  403cc8:	f90002fc 	str	x28, [x23]
  403ccc:	f94053a5 	ldr	x5, [x29, #160]
  403cd0:	f94043a8 	ldr	x8, [x29, #128]
  403cd4:	f9000ae8 	str	x8, [x23, #16]
  403cd8:	f90004a0 	str	x0, [x5, #8]
  403cdc:	17ffff6c 	b	403a8c <read_alias_file+0x118>
  403ce0:	b50001c0 	cbnz	x0, 403d18 <read_alias_file+0x3a4>
  403ce4:	d280c801 	mov	x1, #0x640                 	// #1600
  403ce8:	d2800c82 	mov	x2, #0x64                  	// #100
  403cec:	d0000445 	adrp	x5, 48d000 <known_derivations>
  403cf0:	a90a17a2 	stp	x2, x5, [x29, #160]
  403cf4:	f942d4a0 	ldr	x0, [x5, #1448]
  403cf8:	9400545e 	bl	418e70 <__libc_realloc>
  403cfc:	b4ffece0 	cbz	x0, 403a98 <read_alias_file+0x124>
  403d00:	a94a17a2 	ldp	x2, x5, [x29, #160]
  403d04:	f90006e2 	str	x2, [x23, #8]
  403d08:	f902d4a0 	str	x0, [x5, #1448]
  403d0c:	17ffffad 	b	403bc0 <read_alias_file+0x24c>
  403d10:	3900001f 	strb	wzr, [x0]
  403d14:	17ffffa7 	b	403bb0 <read_alias_file+0x23c>
  403d18:	d37ff802 	lsl	x2, x0, #1
  403d1c:	d37be801 	lsl	x1, x0, #5
  403d20:	17fffff3 	b	403cec <read_alias_file+0x378>
  403d24:	d2800019 	mov	x25, #0x0                   	// #0
  403d28:	17ffff67 	b	403ac4 <read_alias_file+0x150>
  403d2c:	d2800007 	mov	x7, #0x0                   	// #0
  403d30:	b4fff99c 	cbz	x28, 403c60 <read_alias_file+0x2ec>
  403d34:	d37cef87 	lsl	x7, x28, #4
  403d38:	cb060006 	sub	x6, x0, x6
  403d3c:	8b07016e 	add	x14, x11, x7
  403d40:	aa0b03e0 	mov	x0, x11
  403d44:	a940300d 	ldp	x13, x12, [x0]
  403d48:	8b0601ad 	add	x13, x13, x6
  403d4c:	8b06018c 	add	x12, x12, x6
  403d50:	a900300d 	stp	x13, x12, [x0]
  403d54:	91004000 	add	x0, x0, #0x10
  403d58:	eb0001df 	cmp	x14, x0
  403d5c:	54ffff41 	b.ne	403d44 <read_alias_file+0x3d0>  // b.any
  403d60:	17ffffc0 	b	403c60 <read_alias_file+0x2ec>
  403d64:	9400220b 	bl	40c590 <_IO_new_fclose>
  403d68:	17ffff57 	b	403ac4 <read_alias_file+0x150>
  403d6c:	94007491 	bl	420fb0 <__stack_chk_fail>

0000000000403d70 <_nl_expand_alias>:
  403d70:	a9bb7bfd 	stp	x29, x30, [sp, #-80]!
  403d74:	52800021 	mov	w1, #0x1                   	// #1
  403d78:	910003fd 	mov	x29, sp
  403d7c:	a90153f3 	stp	x19, x20, [sp, #16]
  403d80:	aa0003f4 	mov	x20, x0
  403d84:	52800000 	mov	w0, #0x0                   	// #0
  403d88:	a9025bf5 	stp	x21, x22, [sp, #32]
  403d8c:	b0000455 	adrp	x21, 48c000 <object.0+0x28>
  403d90:	9125c2b3 	add	x19, x21, #0x970
  403d94:	91008273 	add	x19, x19, #0x20
  403d98:	a90363f7 	stp	x23, x24, [sp, #48]
  403d9c:	aa1303e2 	mov	x2, x19
  403da0:	a9046bf9 	stp	x25, x26, [sp, #64]
  403da4:	9401246f 	bl	44cf60 <__aarch64_cas4_acq>
  403da8:	35000d80 	cbnz	w0, 403f58 <_nl_expand_alias+0x1e8>
  403dac:	9125c2a1 	add	x1, x21, #0x970
  403db0:	f9401420 	ldr	x0, [x1, #40]
  403db4:	b4000a00 	cbz	x0, 403ef4 <_nl_expand_alias+0x184>
  403db8:	f944bab7 	ldr	x23, [x21, #2416]
  403dbc:	d0000433 	adrp	x19, 489000 <_nl_C_LC_IDENTIFICATION+0xa8>
  403dc0:	91290273 	add	x19, x19, #0xa40
  403dc4:	b50006d7 	cbnz	x23, 403e9c <_nl_expand_alias+0x12c>
  403dc8:	9125c2b6 	add	x22, x21, #0x970
  403dcc:	f94016c3 	ldr	x3, [x22, #40]
  403dd0:	52800001 	mov	w1, #0x0                   	// #0
  403dd4:	39400060 	ldrb	w0, [x3]
  403dd8:	340002c0 	cbz	w0, 403e30 <_nl_expand_alias+0xc0>
  403ddc:	d503201f 	nop
  403de0:	91000461 	add	x1, x3, #0x1
  403de4:	7100e81f 	cmp	w0, #0x3a
  403de8:	54000821 	b.ne	403eec <_nl_expand_alias+0x17c>  // b.any
  403dec:	d503201f 	nop
  403df0:	aa0103e0 	mov	x0, x1
  403df4:	38401422 	ldrb	w2, [x1], #1
  403df8:	7100e85f 	cmp	w2, #0x3a
  403dfc:	54ffffa0 	b.eq	403df0 <_nl_expand_alias+0x80>  // b.none
  403e00:	340003c2 	cbz	w2, 403e78 <_nl_expand_alias+0x108>
  403e04:	91000401 	add	x1, x0, #0x1
  403e08:	aa0103e3 	mov	x3, x1
  403e0c:	38401422 	ldrb	w2, [x1], #1
  403e10:	7100e85f 	cmp	w2, #0x3a
  403e14:	7a401844 	ccmp	w2, #0x0, #0x4, ne  // ne = any
  403e18:	54ffff81 	b.ne	403e08 <_nl_expand_alias+0x98>  // b.any
  403e1c:	eb00007f 	cmp	x3, x0
  403e20:	54000328 	b.hi	403e84 <_nl_expand_alias+0x114>  // b.pmore
  403e24:	52800021 	mov	w1, #0x1                   	// #1
  403e28:	39400060 	ldrb	w0, [x3]
  403e2c:	35fffda0 	cbnz	w0, 403de0 <_nl_expand_alias+0x70>
  403e30:	34000061 	cbz	w1, 403e3c <_nl_expand_alias+0xcc>
  403e34:	9125c2a0 	add	x0, x21, #0x970
  403e38:	f9001403 	str	x3, [x0, #40]
  403e3c:	9125c2b4 	add	x20, x21, #0x970
  403e40:	d2800013 	mov	x19, #0x0                   	// #0
  403e44:	91008294 	add	x20, x20, #0x20
  403e48:	52800000 	mov	w0, #0x0                   	// #0
  403e4c:	aa1403e1 	mov	x1, x20
  403e50:	940124a4 	bl	44d0e0 <__aarch64_swp4_rel>
  403e54:	7100041f 	cmp	w0, #0x1
  403e58:	5400066c 	b.gt	403f24 <_nl_expand_alias+0x1b4>
  403e5c:	aa1303e0 	mov	x0, x19
  403e60:	a94153f3 	ldp	x19, x20, [sp, #16]
  403e64:	a9425bf5 	ldp	x21, x22, [sp, #32]
  403e68:	a94363f7 	ldp	x23, x24, [sp, #48]
  403e6c:	a9446bf9 	ldp	x25, x26, [sp, #64]
  403e70:	a8c57bfd 	ldp	x29, x30, [sp], #80
  403e74:	d65f03c0 	ret
  403e78:	aa0003e3 	mov	x3, x0
  403e7c:	52800021 	mov	w1, #0x1                   	// #1
  403e80:	17ffffea 	b	403e28 <_nl_expand_alias+0xb8>
  403e84:	4b000061 	sub	w1, w3, w0
  403e88:	f90016c3 	str	x3, [x22, #40]
  403e8c:	97fffeba 	bl	403974 <read_alias_file>
  403e90:	b4fff9e0 	cbz	x0, 403dcc <_nl_expand_alias+0x5c>
  403e94:	f944bab7 	ldr	x23, [x21, #2416]
  403e98:	b4fff997 	cbz	x23, 403dc8 <_nl_expand_alias+0x58>
  403e9c:	d0000440 	adrp	x0, 48d000 <known_derivations>
  403ea0:	d2800018 	mov	x24, #0x0                   	// #0
  403ea4:	f942d419 	ldr	x25, [x0, #1448]
  403ea8:	14000005 	b	403ebc <_nl_expand_alias+0x14c>
  403eac:	540002c0 	b.eq	403f04 <_nl_expand_alias+0x194>  // b.none
  403eb0:	910006d8 	add	x24, x22, #0x1
  403eb4:	eb1802ff 	cmp	x23, x24
  403eb8:	54fff889 	b.ls	403dc8 <_nl_expand_alias+0x58>  // b.plast
  403ebc:	8b170316 	add	x22, x24, x23
  403ec0:	aa1303e2 	mov	x2, x19
  403ec4:	aa1403e0 	mov	x0, x20
  403ec8:	d341fed6 	lsr	x22, x22, #1
  403ecc:	d37ceec1 	lsl	x1, x22, #4
  403ed0:	8b01033a 	add	x26, x25, x1
  403ed4:	f8616b21 	ldr	x1, [x25, x1]
  403ed8:	94005ea2 	bl	41b960 <__strcasecmp_l>
  403edc:	7100001f 	cmp	w0, #0x0
  403ee0:	54fffe6a 	b.ge	403eac <_nl_expand_alias+0x13c>  // b.tcont
  403ee4:	aa1603f7 	mov	x23, x22
  403ee8:	17fffff3 	b	403eb4 <_nl_expand_alias+0x144>
  403eec:	aa0303e0 	mov	x0, x3
  403ef0:	17ffffc5 	b	403e04 <_nl_expand_alias+0x94>
  403ef4:	90000280 	adrp	x0, 453000 <_IO_stdin_used+0xf0>
  403ef8:	91050000 	add	x0, x0, #0x140
  403efc:	f9001420 	str	x0, [x1, #40]
  403f00:	17ffffae 	b	403db8 <_nl_expand_alias+0x48>
  403f04:	9125c2b4 	add	x20, x21, #0x970
  403f08:	52800000 	mov	w0, #0x0                   	// #0
  403f0c:	91008294 	add	x20, x20, #0x20
  403f10:	aa1403e1 	mov	x1, x20
  403f14:	f9400753 	ldr	x19, [x26, #8]
  403f18:	94012472 	bl	44d0e0 <__aarch64_swp4_rel>
  403f1c:	7100041f 	cmp	w0, #0x1
  403f20:	54fff9ed 	b.le	403e5c <_nl_expand_alias+0xec>
  403f24:	aa1403e0 	mov	x0, x20
  403f28:	d2801021 	mov	x1, #0x81                  	// #129
  403f2c:	d2800022 	mov	x2, #0x1                   	// #1
  403f30:	d2800003 	mov	x3, #0x0                   	// #0
  403f34:	d2800c48 	mov	x8, #0x62                  	// #98
  403f38:	d4000001 	svc	#0x0
  403f3c:	aa1303e0 	mov	x0, x19
  403f40:	a94153f3 	ldp	x19, x20, [sp, #16]
  403f44:	a9425bf5 	ldp	x21, x22, [sp, #32]
  403f48:	a94363f7 	ldp	x23, x24, [sp, #48]
  403f4c:	a9446bf9 	ldp	x25, x26, [sp, #64]
  403f50:	a8c57bfd 	ldp	x29, x30, [sp], #80
  403f54:	d65f03c0 	ret
  403f58:	aa1303e0 	mov	x0, x19
  403f5c:	94003fe1 	bl	413ee0 <__lll_lock_wait_private>
  403f60:	17ffff93 	b	403dac <_nl_expand_alias+0x3c>
  403f64:	d503201f 	nop
  403f68:	d503201f 	nop
  403f6c:	d503201f 	nop

0000000000403f70 <_nl_make_l10nflist>:
  403f70:	d102c3ff 	sub	sp, sp, #0xb0
  403f74:	a9027bfd 	stp	x29, x30, [sp, #32]
  403f78:	910083fd 	add	x29, sp, #0x20
  403f7c:	a90353f3 	stp	x19, x20, [sp, #48]
  403f80:	2a0303f4 	mov	w20, w3
  403f84:	a9045bf5 	stp	x21, x22, [sp, #64]
  403f88:	aa0403f6 	mov	x22, x4
  403f8c:	aa0203f5 	mov	x21, x2
  403f90:	a90563f7 	stp	x23, x24, [sp, #80]
  403f94:	aa0103f7 	mov	x23, x1
  403f98:	121e0078 	and	w24, w3, #0x4
  403f9c:	a9066bf9 	stp	x25, x26, [sp, #96]
  403fa0:	aa0503f9 	mov	x25, x5
  403fa4:	9100085a 	add	x26, x2, #0x2
  403fa8:	a9081be0 	stp	x0, x6, [sp, #128]
  403fac:	aa0403e0 	mov	x0, x4
  403fb0:	f9004be7 	str	x7, [sp, #144]
  403fb4:	f90057e5 	str	x5, [sp, #168]
  403fb8:	97fff0d2 	bl	400300 <.plt+0x60>
  403fbc:	aa0003f3 	mov	x19, x0
  403fc0:	d2800000 	mov	x0, #0x0                   	// #0
  403fc4:	36100094 	tbz	w20, #2, 403fd4 <_nl_make_l10nflist+0x64>
  403fc8:	aa1903e0 	mov	x0, x25
  403fcc:	97fff0cd 	bl	400300 <.plt+0x60>
  403fd0:	91000400 	add	x0, x0, #0x1
  403fd4:	8b000273 	add	x19, x19, x0
  403fd8:	121f0280 	and	w0, w20, #0x2
  403fdc:	b9009be0 	str	w0, [sp, #152]
  403fe0:	8b1a0273 	add	x19, x19, x26
  403fe4:	d2800019 	mov	x25, #0x0                   	// #0
  403fe8:	36080094 	tbz	w20, #1, 403ff8 <_nl_make_l10nflist+0x88>
  403fec:	f94047e0 	ldr	x0, [sp, #136]
  403ff0:	97fff0c4 	bl	400300 <.plt+0x60>
  403ff4:	91000419 	add	x25, x0, #0x1
  403ff8:	12000281 	and	w1, w20, #0x1
  403ffc:	b900a3e1 	str	w1, [sp, #160]
  404000:	d2800000 	mov	x0, #0x0                   	// #0
  404004:	36000094 	tbz	w20, #0, 404014 <_nl_make_l10nflist+0xa4>
  404008:	f9404be0 	ldr	x0, [sp, #144]
  40400c:	97fff0bd 	bl	400300 <.plt+0x60>
  404010:	91000400 	add	x0, x0, #0x1
  404014:	8b000320 	add	x0, x25, x0
  404018:	d2800019 	mov	x25, #0x0                   	// #0
  40401c:	8b130013 	add	x19, x0, x19
  404020:	121d0280 	and	w0, w20, #0x8
  404024:	b900a7e0 	str	w0, [sp, #164]
  404028:	36180094 	tbz	w20, #3, 404038 <_nl_make_l10nflist+0xc8>
  40402c:	f9405be0 	ldr	x0, [sp, #176]
  404030:	97fff0b4 	bl	400300 <.plt+0x60>
  404034:	91000419 	add	x25, x0, #0x1
  404038:	f9405fe0 	ldr	x0, [sp, #184]
  40403c:	97fff0b1 	bl	400300 <.plt+0x60>
  404040:	aa0003fa 	mov	x26, x0
  404044:	8b190000 	add	x0, x0, x25
  404048:	8b130000 	add	x0, x0, x19
  40404c:	94005191 	bl	418690 <__libc_malloc>
  404050:	aa0003f3 	mov	x19, x0
  404054:	b4001fa0 	cbz	x0, 404448 <_nl_make_l10nflist+0x4d8>
  404058:	aa1503e2 	mov	x2, x21
  40405c:	aa1703e1 	mov	x1, x23
  404060:	a90773fb 	stp	x27, x28, [sp, #112]
  404064:	97fff093 	bl	4002b0 <.plt+0x10>
  404068:	b4000235 	cbz	x21, 4040ac <_nl_make_l10nflist+0x13c>
  40406c:	aa1303fb 	mov	x27, x19
  404070:	aa1503fc 	mov	x28, x21
  404074:	aa1b03e0 	mov	x0, x27
  404078:	97fff0a2 	bl	400300 <.plt+0x60>
  40407c:	8b00037b 	add	x27, x27, x0
  404080:	aa2003e0 	mvn	x0, x0
  404084:	ab00039c 	adds	x28, x28, x0
  404088:	52800759 	mov	w25, #0x3a                  	// #58
  40408c:	54000100 	b.eq	4040ac <_nl_make_l10nflist+0x13c>  // b.none
  404090:	38001779 	strb	w25, [x27], #1
  404094:	aa1b03e0 	mov	x0, x27
  404098:	97fff09a 	bl	400300 <.plt+0x60>
  40409c:	8b00037b 	add	x27, x27, x0
  4040a0:	aa2003e0 	mvn	x0, x0
  4040a4:	ab00039c 	adds	x28, x28, x0
  4040a8:	54ffff41 	b.ne	404090 <_nl_make_l10nflist+0x120>  // b.any
  4040ac:	8b150260 	add	x0, x19, x21
  4040b0:	528005e2 	mov	w2, #0x2f                  	// #47
  4040b4:	aa1603e1 	mov	x1, x22
  4040b8:	381ff002 	sturb	w2, [x0, #-1]
  4040bc:	94005dc1 	bl	41b7c0 <__stpcpy>
  4040c0:	aa0003e1 	mov	x1, x0
  4040c4:	350018d8 	cbnz	w24, 4043dc <_nl_make_l10nflist+0x46c>
  4040c8:	b9409be2 	ldr	w2, [sp, #152]
  4040cc:	91000420 	add	x0, x1, #0x1
  4040d0:	35001782 	cbnz	w2, 4043c0 <_nl_make_l10nflist+0x450>
  4040d4:	b940a3e2 	ldr	w2, [sp, #160]
  4040d8:	35001562 	cbnz	w2, 404384 <_nl_make_l10nflist+0x414>
  4040dc:	b940a7e2 	ldr	w2, [sp, #164]
  4040e0:	35001622 	cbnz	w2, 4043a4 <_nl_make_l10nflist+0x434>
  4040e4:	528005e2 	mov	w2, #0x2f                  	// #47
  4040e8:	39000022 	strb	w2, [x1]
  4040ec:	f9405fe1 	ldr	x1, [sp, #184]
  4040f0:	91000742 	add	x2, x26, #0x1
  4040f4:	d2800018 	mov	x24, #0x0                   	// #0
  4040f8:	97fff06e 	bl	4002b0 <.plt+0x10>
  4040fc:	f94043e0 	ldr	x0, [sp, #128]
  404100:	f940001a 	ldr	x26, [x0]
  404104:	f9004ffa 	str	x26, [sp, #152]
  404108:	b400019a 	cbz	x26, 404138 <_nl_make_l10nflist+0x1c8>
  40410c:	d503201f 	nop
  404110:	f9400340 	ldr	x0, [x26]
  404114:	aa1303e1 	mov	x1, x19
  404118:	b40000c0 	cbz	x0, 404130 <_nl_make_l10nflist+0x1c0>
  40411c:	94005869 	bl	41a2c0 <strcmp>
  404120:	7100001f 	cmp	w0, #0x0
  404124:	340011a0 	cbz	w0, 404358 <_nl_make_l10nflist+0x3e8>
  404128:	5400008b 	b.lt	404138 <_nl_make_l10nflist+0x1c8>  // b.tstop
  40412c:	aa1a03f8 	mov	x24, x26
  404130:	f9400f5a 	ldr	x26, [x26, #24]
  404134:	b5fffefa 	cbnz	x26, 404110 <_nl_make_l10nflist+0x1a0>
  404138:	b940c3e0 	ldr	w0, [sp, #192]
  40413c:	340010c0 	cbz	w0, 404354 <_nl_make_l10nflist+0x3e4>
  404140:	12855541 	mov	w1, #0xffffd555            	// #-10923
  404144:	528aaaa0 	mov	w0, #0x5555                	// #21845
  404148:	0a940421 	and	w1, w1, w20, asr #1
  40414c:	0a000280 	and	w0, w20, w0
  404150:	0b000021 	add	w1, w1, w0
  404154:	12819980 	mov	w0, #0xfffff333            	// #-3277
  404158:	52866662 	mov	w2, #0x3333                	// #13107
  40415c:	0a020022 	and	w2, w1, w2
  404160:	0a810800 	and	w0, w0, w1, asr #2
  404164:	5281e1e5 	mov	w5, #0xf0f                 	// #3855
  404168:	0b020000 	add	w0, w0, w2
  40416c:	52800024 	mov	w4, #0x1                   	// #1
  404170:	aa1503fb 	mov	x27, x21
  404174:	aa1703fc 	mov	x28, x23
  404178:	0b801000 	add	w0, w0, w0, asr #4
  40417c:	d280001a 	mov	x26, #0x0                   	// #0
  404180:	0a050000 	and	w0, w0, w5
  404184:	0b402000 	add	w0, w0, w0, lsr #8
  404188:	1ac02080 	lsl	w0, w4, w0
  40418c:	93407c19 	sxtw	x25, w0
  404190:	b4001415 	cbz	x21, 404410 <_nl_make_l10nflist+0x4a0>
  404194:	d503201f 	nop
  404198:	aa1c03e0 	mov	x0, x28
  40419c:	97fff059 	bl	400300 <.plt+0x60>
  4041a0:	91000404 	add	x4, x0, #0x1
  4041a4:	aa2003e0 	mvn	x0, x0
  4041a8:	9100075a 	add	x26, x26, #0x1
  4041ac:	8b04039c 	add	x28, x28, x4
  4041b0:	ab00037b 	adds	x27, x27, x0
  4041b4:	54ffff21 	b.ne	404198 <_nl_make_l10nflist+0x228>  // b.any
  4041b8:	9b197f40 	mul	x0, x26, x25
  4041bc:	91001400 	add	x0, x0, #0x5
  4041c0:	d37df000 	lsl	x0, x0, #3
  4041c4:	94005133 	bl	418690 <__libc_malloc>
  4041c8:	aa0003fa 	mov	x26, x0
  4041cc:	b4001340 	cbz	x0, 404434 <_nl_make_l10nflist+0x4c4>
  4041d0:	aa1503f9 	mov	x25, x21
  4041d4:	aa1703fc 	mov	x28, x23
  4041d8:	f9000013 	str	x19, [x0]
  4041dc:	d503201f 	nop
  4041e0:	aa1c03e0 	mov	x0, x28
  4041e4:	97fff047 	bl	400300 <.plt+0x60>
  4041e8:	91000404 	add	x4, x0, #0x1
  4041ec:	aa2003e0 	mvn	x0, x0
  4041f0:	9100077b 	add	x27, x27, #0x1
  4041f4:	8b04039c 	add	x28, x28, x4
  4041f8:	ab000339 	adds	x25, x25, x0
  4041fc:	54ffff21 	b.ne	4041e0 <_nl_make_l10nflist+0x270>  // b.any
  404200:	52800020 	mov	w0, #0x1                   	// #1
  404204:	f100077f 	cmp	x27, #0x1
  404208:	540005c0 	b.eq	4042c0 <_nl_make_l10nflist+0x350>  // b.none
  40420c:	b9000b40 	str	w0, [x26, #8]
  404210:	f9000b5f 	str	xzr, [x26, #16]
  404214:	b4000f18 	cbz	x24, 4043f4 <_nl_make_l10nflist+0x484>
  404218:	f9400f00 	ldr	x0, [x24, #24]
  40421c:	f9000f40 	str	x0, [x26, #24]
  404220:	f9000f1a 	str	x26, [x24, #24]
  404224:	b4000f35 	cbz	x21, 404408 <_nl_make_l10nflist+0x498>
  404228:	aa1503f8 	mov	x24, x21
  40422c:	aa1703f3 	mov	x19, x23
  404230:	d2800019 	mov	x25, #0x0                   	// #0
  404234:	d503201f 	nop
  404238:	aa1303e0 	mov	x0, x19
  40423c:	97fff031 	bl	400300 <.plt+0x60>
  404240:	91000401 	add	x1, x0, #0x1
  404244:	aa2003e0 	mvn	x0, x0
  404248:	91000739 	add	x25, x25, #0x1
  40424c:	8b010273 	add	x19, x19, x1
  404250:	ab000318 	adds	x24, x24, x0
  404254:	54ffff21 	b.ne	404238 <_nl_make_l10nflist+0x2c8>  // b.any
  404258:	f100073f 	cmp	x25, #0x1
  40425c:	1a9f17f9 	cset	w25, eq  // eq = none
  404260:	4b190299 	sub	w25, w20, w25
  404264:	2a3403f8 	mvn	w24, w20
  404268:	d2800014 	mov	x20, #0x0                   	// #0
  40426c:	37f80159 	tbnz	w25, #31, 404294 <_nl_make_l10nflist+0x324>
  404270:	8b1502f3 	add	x19, x23, x21
  404274:	91006340 	add	x0, x26, #0x18
  404278:	5280003c 	mov	w28, #0x1                   	// #1
  40427c:	f9004fe0 	str	x0, [sp, #152]
  404280:	6a18033f 	tst	w25, w24
  404284:	540002c0 	b.eq	4042dc <_nl_make_l10nflist+0x36c>  // b.none
  404288:	51000739 	sub	w25, w25, #0x1
  40428c:	3100073f 	cmn	w25, #0x1
  404290:	54ffff81 	b.ne	404280 <_nl_make_l10nflist+0x310>  // b.any
  404294:	a94773fb 	ldp	x27, x28, [sp, #112]
  404298:	91001294 	add	x20, x20, #0x4
  40429c:	f8347b5f 	str	xzr, [x26, x20, lsl #3]
  4042a0:	aa1a03e0 	mov	x0, x26
  4042a4:	a9427bfd 	ldp	x29, x30, [sp, #32]
  4042a8:	a94353f3 	ldp	x19, x20, [sp, #48]
  4042ac:	a9445bf5 	ldp	x21, x22, [sp, #64]
  4042b0:	a94563f7 	ldp	x23, x24, [sp, #80]
  4042b4:	a9466bf9 	ldp	x25, x26, [sp, #96]
  4042b8:	9102c3ff 	add	sp, sp, #0xb0
  4042bc:	d65f03c0 	ret
  4042c0:	12000680 	and	w0, w20, #0x3
  4042c4:	f9000b5f 	str	xzr, [x26, #16]
  4042c8:	71000c1f 	cmp	w0, #0x3
  4042cc:	1a9f17e0 	cset	w0, eq  // eq = none
  4042d0:	b9000b40 	str	w0, [x26, #8]
  4042d4:	b5fffa38 	cbnz	x24, 404218 <_nl_make_l10nflist+0x2a8>
  4042d8:	14000047 	b	4043f4 <_nl_make_l10nflist+0x484>
  4042dc:	d280001b 	mov	x27, #0x0                   	// #0
  4042e0:	b400035b 	cbz	x27, 404348 <_nl_make_l10nflist+0x3d8>
  4042e4:	aa1b03e0 	mov	x0, x27
  4042e8:	eb13037f 	cmp	x27, x19
  4042ec:	54fffce2 	b.cs	404288 <_nl_make_l10nflist+0x318>  // b.hs, b.nlast
  4042f0:	97fff004 	bl	400300 <.plt+0x60>
  4042f4:	91000400 	add	x0, x0, #0x1
  4042f8:	8b00037b 	add	x27, x27, x0
  4042fc:	eb13037f 	cmp	x27, x19
  404300:	54fffc42 	b.cs	404288 <_nl_make_l10nflist+0x318>  // b.hs, b.nlast
  404304:	aa1b03e0 	mov	x0, x27
  404308:	97ffeffe 	bl	400300 <.plt+0x60>
  40430c:	a9489fe6 	ldp	x6, x7, [sp, #136]
  404310:	91000402 	add	x2, x0, #0x1
  404314:	a94a87e5 	ldp	x5, x1, [sp, #168]
  404318:	b90013fc 	str	w28, [sp, #16]
  40431c:	f9405fe0 	ldr	x0, [sp, #184]
  404320:	a90003e1 	stp	x1, x0, [sp]
  404324:	aa1603e4 	mov	x4, x22
  404328:	f94043e0 	ldr	x0, [sp, #128]
  40432c:	aa1b03e1 	mov	x1, x27
  404330:	2a1903e3 	mov	w3, w25
  404334:	91000694 	add	x20, x20, #0x1
  404338:	97ffff0e 	bl	403f70 <_nl_make_l10nflist>
  40433c:	f9404fe1 	ldr	x1, [sp, #152]
  404340:	f8347820 	str	x0, [x1, x20, lsl #3]
  404344:	b5fffd1b 	cbnz	x27, 4042e4 <_nl_make_l10nflist+0x374>
  404348:	aa1703fb 	mov	x27, x23
  40434c:	b4fff9f5 	cbz	x21, 404288 <_nl_make_l10nflist+0x318>
  404350:	17ffffed 	b	404304 <_nl_make_l10nflist+0x394>
  404354:	d280001a 	mov	x26, #0x0                   	// #0
  404358:	aa1303e0 	mov	x0, x19
  40435c:	9400523d 	bl	418c50 <__free>
  404360:	aa1a03e0 	mov	x0, x26
  404364:	a9427bfd 	ldp	x29, x30, [sp, #32]
  404368:	a94353f3 	ldp	x19, x20, [sp, #48]
  40436c:	a9445bf5 	ldp	x21, x22, [sp, #64]
  404370:	a94563f7 	ldp	x23, x24, [sp, #80]
  404374:	a9466bf9 	ldp	x25, x26, [sp, #96]
  404378:	a94773fb 	ldp	x27, x28, [sp, #112]
  40437c:	9102c3ff 	add	sp, sp, #0xb0
  404380:	d65f03c0 	ret
  404384:	528005c2 	mov	w2, #0x2e                  	// #46
  404388:	39000022 	strb	w2, [x1]
  40438c:	f9404be1 	ldr	x1, [sp, #144]
  404390:	94005d0c 	bl	41b7c0 <__stpcpy>
  404394:	aa0003e1 	mov	x1, x0
  404398:	b940a7e2 	ldr	w2, [sp, #164]
  40439c:	91000400 	add	x0, x0, #0x1
  4043a0:	34ffea22 	cbz	w2, 4040e4 <_nl_make_l10nflist+0x174>
  4043a4:	52800802 	mov	w2, #0x40                  	// #64
  4043a8:	39000022 	strb	w2, [x1]
  4043ac:	f9405be1 	ldr	x1, [sp, #176]
  4043b0:	94005d04 	bl	41b7c0 <__stpcpy>
  4043b4:	aa0003e1 	mov	x1, x0
  4043b8:	91000400 	add	x0, x0, #0x1
  4043bc:	17ffff4a 	b	4040e4 <_nl_make_l10nflist+0x174>
  4043c0:	528005c2 	mov	w2, #0x2e                  	// #46
  4043c4:	39000022 	strb	w2, [x1]
  4043c8:	f94047e1 	ldr	x1, [sp, #136]
  4043cc:	94005cfd 	bl	41b7c0 <__stpcpy>
  4043d0:	aa0003e1 	mov	x1, x0
  4043d4:	91000400 	add	x0, x0, #0x1
  4043d8:	17ffff3f 	b	4040d4 <_nl_make_l10nflist+0x164>
  4043dc:	f94057e1 	ldr	x1, [sp, #168]
  4043e0:	52800be2 	mov	w2, #0x5f                  	// #95
  4043e4:	38001402 	strb	w2, [x0], #1
  4043e8:	94005cf6 	bl	41b7c0 <__stpcpy>
  4043ec:	aa0003e1 	mov	x1, x0
  4043f0:	17ffff36 	b	4040c8 <_nl_make_l10nflist+0x158>
  4043f4:	f94043e0 	ldr	x0, [sp, #128]
  4043f8:	f900001a 	str	x26, [x0]
  4043fc:	f9404fe0 	ldr	x0, [sp, #152]
  404400:	f9000f40 	str	x0, [x26, #24]
  404404:	17ffff88 	b	404224 <_nl_make_l10nflist+0x2b4>
  404408:	2a1403f9 	mov	w25, w20
  40440c:	17ffff96 	b	404264 <_nl_make_l10nflist+0x2f4>
  404410:	d2800500 	mov	x0, #0x28                  	// #40
  404414:	b900a3e4 	str	w4, [sp, #160]
  404418:	9400509e 	bl	418690 <__libc_malloc>
  40441c:	aa0003fa 	mov	x26, x0
  404420:	b940a3e4 	ldr	w4, [sp, #160]
  404424:	b4000080 	cbz	x0, 404434 <_nl_make_l10nflist+0x4c4>
  404428:	2a0403e0 	mov	w0, w4
  40442c:	f9000353 	str	x19, [x26]
  404430:	17ffff77 	b	40420c <_nl_make_l10nflist+0x29c>
  404434:	aa1303e0 	mov	x0, x19
  404438:	d280001a 	mov	x26, #0x0                   	// #0
  40443c:	94005205 	bl	418c50 <__free>
  404440:	a94773fb 	ldp	x27, x28, [sp, #112]
  404444:	17ffff97 	b	4042a0 <_nl_make_l10nflist+0x330>
  404448:	d280001a 	mov	x26, #0x0                   	// #0
  40444c:	17ffff95 	b	4042a0 <_nl_make_l10nflist+0x330>

0000000000404450 <_nl_normalize_codeset>:
  404450:	a9bd7bfd 	stp	x29, x30, [sp, #-48]!
  404454:	910003fd 	mov	x29, sp
  404458:	b4000841 	cbz	x1, 404560 <_nl_normalize_codeset+0x110>
  40445c:	a90153f3 	stp	x19, x20, [sp, #16]
  404460:	aa0103f4 	mov	x20, x1
  404464:	aa0003e3 	mov	x3, x0
  404468:	a9025bf5 	stp	x21, x22, [sp, #32]
  40446c:	b0000436 	adrp	x22, 489000 <_nl_C_LC_IDENTIFICATION+0xa8>
  404470:	912902c1 	add	x1, x22, #0xa40
  404474:	aa0003f5 	mov	x21, x0
  404478:	8b000285 	add	x5, x20, x0
  40447c:	52800024 	mov	w4, #0x1                   	// #1
  404480:	d2800000 	mov	x0, #0x0                   	// #0
  404484:	f9403433 	ldr	x19, [x1, #104]
  404488:	91000463 	add	x3, x3, #0x1
  40448c:	385ff062 	ldurb	w2, [x3, #-1]
  404490:	5100c041 	sub	w1, w2, #0x30
  404494:	d37f1c42 	ubfiz	x2, x2, #1, #8
  404498:	78626a62 	ldrh	w2, [x19, x2]
  40449c:	36180082 	tbz	w2, #3, 4044ac <_nl_normalize_codeset+0x5c>
  4044a0:	7100283f 	cmp	w1, #0xa
  4044a4:	91000400 	add	x0, x0, #0x1
  4044a8:	1a9f3084 	csel	w4, w4, wzr, cc  // cc = lo, ul, last
  4044ac:	eb0300bf 	cmp	x5, x3
  4044b0:	54fffec1 	b.ne	404488 <_nl_normalize_codeset+0x38>  // b.any
  4044b4:	35000424 	cbnz	w4, 404538 <_nl_normalize_codeset+0xe8>
  4044b8:	91000400 	add	x0, x0, #0x1
  4044bc:	94005075 	bl	418690 <__libc_malloc>
  4044c0:	aa0003e4 	mov	x4, x0
  4044c4:	b40005a0 	cbz	x0, 404578 <_nl_normalize_codeset+0x128>
  4044c8:	912902d6 	add	x22, x22, #0xa40
  4044cc:	d2800003 	mov	x3, #0x0                   	// #0
  4044d0:	f9403ac8 	ldr	x8, [x22, #112]
  4044d4:	14000007 	b	4044f0 <_nl_normalize_codeset+0xa0>
  4044d8:	b8677901 	ldr	w1, [x8, x7, lsl #2]
  4044dc:	380014a1 	strb	w1, [x5], #1
  4044e0:	aa0503e4 	mov	x4, x5
  4044e4:	91000463 	add	x3, x3, #0x1
  4044e8:	eb03029f 	cmp	x20, x3
  4044ec:	540001c9 	b.ls	404524 <_nl_normalize_codeset+0xd4>  // b.plast
  4044f0:	38636aa7 	ldrb	w7, [x21, x3]
  4044f4:	aa0403e5 	mov	x5, x4
  4044f8:	5100c0e1 	sub	w1, w7, #0x30
  4044fc:	d37f1ce6 	ubfiz	x6, x7, #1, #8
  404500:	78666a66 	ldrh	w6, [x19, x6]
  404504:	3757fea6 	tbnz	w6, #10, 4044d8 <_nl_normalize_codeset+0x88>
  404508:	7100243f 	cmp	w1, #0x9
  40450c:	54fffec8 	b.hi	4044e4 <_nl_normalize_codeset+0x94>  // b.pmore
  404510:	380014a7 	strb	w7, [x5], #1
  404514:	91000463 	add	x3, x3, #0x1
  404518:	aa0503e4 	mov	x4, x5
  40451c:	eb03029f 	cmp	x20, x3
  404520:	54fffe88 	b.hi	4044f0 <_nl_normalize_codeset+0xa0>  // b.pmore
  404524:	a94153f3 	ldp	x19, x20, [sp, #16]
  404528:	a9425bf5 	ldp	x21, x22, [sp, #32]
  40452c:	3900009f 	strb	wzr, [x4]
  404530:	a8c37bfd 	ldp	x29, x30, [sp], #48
  404534:	d65f03c0 	ret
  404538:	91001000 	add	x0, x0, #0x4
  40453c:	94005055 	bl	418690 <__libc_malloc>
  404540:	b40001c0 	cbz	x0, 404578 <_nl_normalize_codeset+0x128>
  404544:	aa0003e4 	mov	x4, x0
  404548:	912902c1 	add	x1, x22, #0xa40
  40454c:	528e6d22 	mov	w2, #0x7369                	// #29545
  404550:	72a00de2 	movk	w2, #0x6f, lsl #16
  404554:	b8003482 	str	w2, [x4], #3
  404558:	f9403433 	ldr	x19, [x1, #104]
  40455c:	17ffffdb 	b	4044c8 <_nl_normalize_codeset+0x78>
  404560:	d2800080 	mov	x0, #0x4                   	// #4
  404564:	9400504b 	bl	418690 <__libc_malloc>
  404568:	b5000100 	cbnz	x0, 404588 <_nl_normalize_codeset+0x138>
  40456c:	d2800000 	mov	x0, #0x0                   	// #0
  404570:	a8c37bfd 	ldp	x29, x30, [sp], #48
  404574:	d65f03c0 	ret
  404578:	d2800000 	mov	x0, #0x0                   	// #0
  40457c:	a94153f3 	ldp	x19, x20, [sp, #16]
  404580:	a9425bf5 	ldp	x21, x22, [sp, #32]
  404584:	17fffffb 	b	404570 <_nl_normalize_codeset+0x120>
  404588:	aa0003e4 	mov	x4, x0
  40458c:	528e6d21 	mov	w1, #0x7369                	// #29545
  404590:	72a00de1 	movk	w1, #0x6f, lsl #16
  404594:	b8003481 	str	w1, [x4], #3
  404598:	17ffffe5 	b	40452c <_nl_normalize_codeset+0xdc>
  40459c:	d503201f 	nop

00000000004045a0 <_nl_explode_name>:
  4045a0:	a9ba7bfd 	stp	x29, x30, [sp, #-96]!
  4045a4:	910003fd 	mov	x29, sp
  4045a8:	a90153f3 	stp	x19, x20, [sp, #16]
  4045ac:	52800014 	mov	w20, #0x0                   	// #0
  4045b0:	f90013f5 	str	x21, [sp, #32]
  4045b4:	aa0403f5 	mov	x21, x4
  4045b8:	f900005f 	str	xzr, [x2]
  4045bc:	f900007f 	str	xzr, [x3]
  4045c0:	f900009f 	str	xzr, [x4]
  4045c4:	f90000bf 	str	xzr, [x5]
  4045c8:	f9000020 	str	x0, [x1]
  4045cc:	39400001 	ldrb	w1, [x0]
  4045d0:	71017c3f 	cmp	w1, #0x5f
  4045d4:	7a401824 	ccmp	w1, #0x0, #0x4, ne  // ne = any
  4045d8:	540003e0 	b.eq	404654 <_nl_explode_name+0xb4>  // b.none
  4045dc:	aa0003f3 	mov	x19, x0
  4045e0:	52800807 	mov	w7, #0x40                  	// #64
  4045e4:	f90017f7 	str	x23, [sp, #40]
  4045e8:	aa0203f7 	mov	x23, x2
  4045ec:	14000006 	b	404604 <_nl_explode_name+0x64>
  4045f0:	39400661 	ldrb	w1, [x19, #1]
  4045f4:	71017c3f 	cmp	w1, #0x5f
  4045f8:	7a401824 	ccmp	w1, #0x0, #0x4, ne  // ne = any
  4045fc:	54000540 	b.eq	4046a4 <_nl_explode_name+0x104>  // b.none
  404600:	aa0603f3 	mov	x19, x6
  404604:	7100b83f 	cmp	w1, #0x2e
  404608:	91000666 	add	x6, x19, #0x1
  40460c:	7a471024 	ccmp	w1, w7, #0x4, ne  // ne = any
  404610:	54ffff01 	b.ne	4045f0 <_nl_explode_name+0x50>  // b.any
  404614:	eb13001f 	cmp	x0, x19
  404618:	54000400 	b.eq	404698 <_nl_explode_name+0xf8>  // b.none
  40461c:	39400261 	ldrb	w1, [x19]
  404620:	52800014 	mov	w20, #0x0                   	// #0
  404624:	7100b83f 	cmp	w1, #0x2e
  404628:	54000680 	b.eq	4046f8 <_nl_explode_name+0x158>  // b.none
  40462c:	7101003f 	cmp	w1, #0x40
  404630:	54000ac1 	b.ne	404788 <_nl_explode_name+0x1e8>  // b.any
  404634:	aa1303e0 	mov	x0, x19
  404638:	321d0281 	orr	w1, w20, #0x8
  40463c:	3800141f 	strb	wzr, [x0], #1
  404640:	f90002e0 	str	x0, [x23]
  404644:	f94017f7 	ldr	x23, [sp, #40]
  404648:	39400660 	ldrb	w0, [x19, #1]
  40464c:	7100001f 	cmp	w0, #0x0
  404650:	1a941034 	csel	w20, w1, w20, ne  // ne = any
  404654:	f9400060 	ldr	x0, [x3]
  404658:	b40000a0 	cbz	x0, 40466c <_nl_explode_name+0xcc>
  40465c:	39400001 	ldrb	w1, [x0]
  404660:	121d7a80 	and	w0, w20, #0xfffffffb
  404664:	7100003f 	cmp	w1, #0x0
  404668:	1a940014 	csel	w20, w0, w20, eq  // eq = none
  40466c:	f94002a0 	ldr	x0, [x21]
  404670:	b40000a0 	cbz	x0, 404684 <_nl_explode_name+0xe4>
  404674:	39400001 	ldrb	w1, [x0]
  404678:	121e7a80 	and	w0, w20, #0xfffffffd
  40467c:	7100003f 	cmp	w1, #0x0
  404680:	1a940014 	csel	w20, w0, w20, eq  // eq = none
  404684:	2a1403e0 	mov	w0, w20
  404688:	a94153f3 	ldp	x19, x20, [sp, #16]
  40468c:	f94013f5 	ldr	x21, [sp, #32]
  404690:	a8c67bfd 	ldp	x29, x30, [sp], #96
  404694:	d65f03c0 	ret
  404698:	52800014 	mov	w20, #0x0                   	// #0
  40469c:	f94017f7 	ldr	x23, [sp, #40]
  4046a0:	17ffffed 	b	404654 <_nl_explode_name+0xb4>
  4046a4:	eb06001f 	cmp	x0, x6
  4046a8:	54ffff80 	b.eq	404698 <_nl_explode_name+0xf8>  // b.none
  4046ac:	71017c3f 	cmp	w1, #0x5f
  4046b0:	54000901 	b.ne	4047d0 <_nl_explode_name+0x230>  // b.any
  4046b4:	390000df 	strb	wzr, [x6]
  4046b8:	91000a73 	add	x19, x19, #0x2
  4046bc:	f9000073 	str	x19, [x3]
  4046c0:	394004c1 	ldrb	w1, [x6, #1]
  4046c4:	12197820 	and	w0, w1, #0xffffffbf
  4046c8:	7100b83f 	cmp	w1, #0x2e
  4046cc:	12001c00 	and	w0, w0, #0xff
  4046d0:	7a401804 	ccmp	w0, #0x0, #0x4, ne  // ne = any
  4046d4:	540000c0 	b.eq	4046ec <_nl_explode_name+0x14c>  // b.none
  4046d8:	38401e61 	ldrb	w1, [x19, #1]!
  4046dc:	7100b83f 	cmp	w1, #0x2e
  4046e0:	12197820 	and	w0, w1, #0xffffffbf
  4046e4:	7a401804 	ccmp	w0, #0x0, #0x4, ne  // ne = any
  4046e8:	54ffff81 	b.ne	4046d8 <_nl_explode_name+0x138>  // b.any
  4046ec:	52800094 	mov	w20, #0x4                   	// #4
  4046f0:	7100b83f 	cmp	w1, #0x2e
  4046f4:	54fff9c1 	b.ne	40462c <_nl_explode_name+0x8c>  // b.any
  4046f8:	aa1303e0 	mov	x0, x19
  4046fc:	a90367f8 	stp	x24, x25, [sp, #48]
  404700:	528017e2 	mov	w2, #0xbf                  	// #191
  404704:	321f0299 	orr	w25, w20, #0x2
  404708:	3800141f 	strb	wzr, [x0], #1
  40470c:	f90002a0 	str	x0, [x21]
  404710:	39400661 	ldrb	w1, [x19, #1]
  404714:	6a02003f 	tst	w1, w2
  404718:	54000540 	b.eq	4047c0 <_nl_explode_name+0x220>  // b.none
  40471c:	aa0003f3 	mov	x19, x0
  404720:	aa1303f8 	mov	x24, x19
  404724:	38401e66 	ldrb	w6, [x19, #1]!
  404728:	528017e4 	mov	w4, #0xbf                  	// #191
  40472c:	6a0400df 	tst	w6, w4
  404730:	54ffff81 	b.ne	404720 <_nl_explode_name+0x180>  // b.any
  404734:	f9002be5 	str	x5, [sp, #80]
  404738:	eb13001f 	cmp	x0, x19
  40473c:	540002a0 	b.eq	404790 <_nl_explode_name+0x1f0>  // b.none
  404740:	cb000261 	sub	x1, x19, x0
  404744:	f90023fa 	str	x26, [sp, #64]
  404748:	f9002fe3 	str	x3, [sp, #88]
  40474c:	97ffff41 	bl	404450 <_nl_normalize_codeset>
  404750:	f9402be5 	ldr	x5, [sp, #80]
  404754:	aa0003fa 	mov	x26, x0
  404758:	f90000a0 	str	x0, [x5]
  40475c:	b4000400 	cbz	x0, 4047dc <_nl_explode_name+0x23c>
  404760:	aa0003e1 	mov	x1, x0
  404764:	f94002a0 	ldr	x0, [x21]
  404768:	940056d6 	bl	41a2c0 <strcmp>
  40476c:	f9402fe3 	ldr	x3, [sp, #88]
  404770:	34000160 	cbz	w0, 40479c <_nl_explode_name+0x1fc>
  404774:	39400701 	ldrb	w1, [x24, #1]
  404778:	32000694 	orr	w20, w20, #0x3
  40477c:	a94367f8 	ldp	x24, x25, [sp, #48]
  404780:	f94023fa 	ldr	x26, [sp, #64]
  404784:	17ffffaa 	b	40462c <_nl_explode_name+0x8c>
  404788:	f94017f7 	ldr	x23, [sp, #40]
  40478c:	17ffffb2 	b	404654 <_nl_explode_name+0xb4>
  404790:	2a1903f4 	mov	w20, w25
  404794:	a94367f8 	ldp	x24, x25, [sp, #48]
  404798:	17ffffa5 	b	40462c <_nl_explode_name+0x8c>
  40479c:	aa1a03e0 	mov	x0, x26
  4047a0:	f9002be3 	str	x3, [sp, #80]
  4047a4:	9400512b 	bl	418c50 <__free>
  4047a8:	2a1903f4 	mov	w20, w25
  4047ac:	39400701 	ldrb	w1, [x24, #1]
  4047b0:	a94367f8 	ldp	x24, x25, [sp, #48]
  4047b4:	f94023fa 	ldr	x26, [sp, #64]
  4047b8:	f9402be3 	ldr	x3, [sp, #80]
  4047bc:	17ffff9c 	b	40462c <_nl_explode_name+0x8c>
  4047c0:	2a1903f4 	mov	w20, w25
  4047c4:	aa0003f3 	mov	x19, x0
  4047c8:	a94367f8 	ldp	x24, x25, [sp, #48]
  4047cc:	17ffff98 	b	40462c <_nl_explode_name+0x8c>
  4047d0:	aa0603f3 	mov	x19, x6
  4047d4:	52800014 	mov	w20, #0x0                   	// #0
  4047d8:	17ffff93 	b	404624 <_nl_explode_name+0x84>
  4047dc:	12800014 	mov	w20, #0xffffffff            	// #-1
  4047e0:	a942e3f7 	ldp	x23, x24, [sp, #40]
  4047e4:	a943ebf9 	ldp	x25, x26, [sp, #56]
  4047e8:	17ffffa7 	b	404684 <_nl_explode_name+0xe4>
  4047ec:	d503201f 	nop

00000000004047f0 <__gettext_free_exp>:
  4047f0:	b4000340 	cbz	x0, 404858 <__gettext_free_exp+0x68>
  4047f4:	a9be7bfd 	stp	x29, x30, [sp, #-32]!
  4047f8:	910003fd 	mov	x29, sp
  4047fc:	f9000bf3 	str	x19, [sp, #16]
  404800:	aa0003f3 	mov	x19, x0
  404804:	b9400000 	ldr	w0, [x0]
  404808:	7100081f 	cmp	w0, #0x2
  40480c:	54000160 	b.eq	404838 <__gettext_free_exp+0x48>  // b.none
  404810:	71000c1f 	cmp	w0, #0x3
  404814:	540000e0 	b.eq	404830 <__gettext_free_exp+0x40>  // b.none
  404818:	7100041f 	cmp	w0, #0x1
  40481c:	54000120 	b.eq	404840 <__gettext_free_exp+0x50>  // b.none
  404820:	aa1303e0 	mov	x0, x19
  404824:	f9400bf3 	ldr	x19, [sp, #16]
  404828:	a8c27bfd 	ldp	x29, x30, [sp], #32
  40482c:	14005109 	b	418c50 <__free>
  404830:	f9400e60 	ldr	x0, [x19, #24]
  404834:	97ffffef 	bl	4047f0 <__gettext_free_exp>
  404838:	f9400a60 	ldr	x0, [x19, #16]
  40483c:	97ffffed 	bl	4047f0 <__gettext_free_exp>
  404840:	f9400660 	ldr	x0, [x19, #8]
  404844:	97ffffeb 	bl	4047f0 <__gettext_free_exp>
  404848:	aa1303e0 	mov	x0, x19
  40484c:	f9400bf3 	ldr	x19, [sp, #16]
  404850:	a8c27bfd 	ldp	x29, x30, [sp], #32
  404854:	140050ff 	b	418c50 <__free>
  404858:	d65f03c0 	ret
  40485c:	d503201f 	nop

0000000000404860 <__gettextparse>:
  404860:	d11f03ff 	sub	sp, sp, #0x7c0
  404864:	b0000423 	adrp	x3, 489000 <_nl_C_LC_IDENTIFICATION+0xa8>
  404868:	9102c3e2 	add	x2, sp, #0xb0
  40486c:	a9007bfd 	stp	x29, x30, [sp]
  404870:	910003fd 	mov	x29, sp
  404874:	f945dc61 	ldr	x1, [x3, #3000]
  404878:	a90153f3 	stp	x19, x20, [sp, #16]
  40487c:	f0000274 	adrp	x20, 453000 <_IO_stdin_used+0xf0>
  404880:	910b0284 	add	x4, x20, #0x2c0
  404884:	a9025bf5 	stp	x21, x22, [sp, #32]
  404888:	91042095 	add	x21, x4, #0x108
  40488c:	a90363f7 	stp	x23, x24, [sp, #48]
  404890:	911bc3f7 	add	x23, sp, #0x6f0
  404894:	12800036 	mov	w22, #0xfffffffe            	// #-2
  404898:	a9046bf9 	stp	x25, x26, [sp, #64]
  40489c:	aa1703f9 	mov	x25, x23
  4048a0:	52800013 	mov	w19, #0x0                   	// #0
  4048a4:	a90573fb 	stp	x27, x28, [sp, #80]
  4048a8:	d280191a 	mov	x26, #0xc8                  	// #200
  4048ac:	f0000278 	adrp	x24, 453000 <_IO_stdin_used+0xf0>
  4048b0:	f90037e4 	str	x4, [sp, #104]
  4048b4:	a90803e3 	stp	x3, x0, [sp, #128]
  4048b8:	f9400020 	ldr	x0, [x1]
  4048bc:	f903dfe0 	str	x0, [sp, #1976]
  4048c0:	d2800000 	mov	x0, #0x0                   	// #0
  4048c4:	aa1703e1 	mov	x1, x23
  4048c8:	f90033e2 	str	x2, [sp, #96]
  4048cc:	b90077ff 	str	wzr, [sp, #116]
  4048d0:	391bc3ff 	strb	wzr, [sp, #1776]
  4048d4:	91126300 	add	x0, x24, #0x498
  4048d8:	93407e69 	sxtw	x9, w19
  4048dc:	38f3c800 	ldrsb	w0, [x0, w19, sxtw]
  4048e0:	2a0003e8 	mov	w8, w0
  4048e4:	3100101f 	cmn	w0, #0x4
  4048e8:	540012c0 	b.eq	404b40 <__gettextparse+0x2e0>  // b.none
  4048ec:	31000adf 	cmn	w22, #0x2
  4048f0:	54002180 	b.eq	404d20 <__gettextparse+0x4c0>  // b.none
  4048f4:	710002df 	cmp	w22, #0x0
  4048f8:	540020ad 	b.le	404d0c <__gettextparse+0x4ac>
  4048fc:	710402df 	cmp	w22, #0x100
  404900:	54002780 	b.eq	404df0 <__gettextparse+0x590>  // b.none
  404904:	f94037e3 	ldr	x3, [sp, #104]
  404908:	38f6c86b 	ldrsb	w11, [x3, w22, sxtw]
  40490c:	0b0b0008 	add	w8, w0, w11
  404910:	7100e11f 	cmp	w8, #0x38
  404914:	54001168 	b.hi	404b40 <__gettextparse+0x2e0>  // b.pmore
  404918:	910b0283 	add	x3, x20, #0x2c0
  40491c:	91042065 	add	x5, x3, #0x108
  404920:	38e8c8a5 	ldrsb	w5, [x5, w8, sxtw]
  404924:	6b0b00bf 	cmp	w5, w11
  404928:	540010c1 	b.ne	404b40 <__gettextparse+0x2e0>  // b.any
  40492c:	91052063 	add	x3, x3, #0x148
  404930:	38e8c873 	ldrsb	w19, [x3, w8, sxtw]
  404934:	2a1303e0 	mov	w0, w19
  404938:	4b1303e3 	neg	w3, w19
  40493c:	7100027f 	cmp	w19, #0x0
  404940:	5400018d 	b.le	404970 <__gettextparse+0x110>
  404944:	b94077e3 	ldr	w3, [sp, #116]
  404948:	aa0103e5 	mov	x5, x1
  40494c:	91002042 	add	x2, x2, #0x8
  404950:	12800036 	mov	w22, #0xfffffffe            	// #-2
  404954:	7100007f 	cmp	w3, #0x0
  404958:	1a9f07e1 	cset	w1, ne  // ne = any
  40495c:	4b010061 	sub	w1, w3, w1
  404960:	b90077e1 	str	w1, [sp, #116]
  404964:	f9404fe1 	ldr	x1, [sp, #152]
  404968:	f9000041 	str	x1, [x2]
  40496c:	1400003c 	b	404a5c <__gettextparse+0x1fc>
  404970:	910b0280 	add	x0, x20, #0x2c0
  404974:	52800028 	mov	w8, #0x1                   	// #1
  404978:	9106a000 	add	x0, x0, #0x1a8
  40497c:	93407c7c 	sxtw	x28, w3
  404980:	38e3c813 	ldrsb	w19, [x0, w3, sxtw]
  404984:	4b130100 	sub	w0, w8, w19
  404988:	f860d840 	ldr	x0, [x2, w0, sxtw #3]
  40498c:	7100207f 	cmp	w3, #0x8
  404990:	54001640 	b.eq	404c58 <__gettextparse+0x3f8>  // b.none
  404994:	5400188c 	b.gt	404ca4 <__gettextparse+0x444>
  404998:	7100147f 	cmp	w3, #0x5
  40499c:	540023a0 	b.eq	404e10 <__gettextparse+0x5b0>  // b.none
  4049a0:	5400154c 	b.gt	404c48 <__gettextparse+0x3e8>
  4049a4:	71000c7f 	cmp	w3, #0x3
  4049a8:	540025a0 	b.eq	404e5c <__gettextparse+0x5fc>  // b.none
  4049ac:	7100107f 	cmp	w3, #0x4
  4049b0:	54001141 	b.ne	404bd8 <__gettextparse+0x378>  // b.any
  4049b4:	f85f0043 	ldur	x3, [x2, #-16]
  4049b8:	f940005b 	ldr	x27, [x2]
  4049bc:	f100007f 	cmp	x3, #0x0
  4049c0:	fa401b64 	ccmp	x27, #0x0, #0x4, ne  // ne = any
  4049c4:	54001ec0 	b.eq	404d9c <__gettextparse+0x53c>  // b.none
  4049c8:	d2800400 	mov	x0, #0x20                  	// #32
  4049cc:	f9003fe3 	str	x3, [sp, #120]
  4049d0:	f9004be1 	str	x1, [sp, #144]
  4049d4:	f90053e2 	str	x2, [sp, #160]
  4049d8:	94004f2e 	bl	418690 <__libc_malloc>
  4049dc:	f9403fe3 	ldr	x3, [sp, #120]
  4049e0:	f9404be1 	ldr	x1, [sp, #144]
  4049e4:	f94053e2 	ldr	x2, [sp, #160]
  4049e8:	b4001da0 	cbz	x0, 404d9c <__gettextparse+0x53c>
  4049ec:	a900ec03 	stp	x3, x27, [x0, #8]
  4049f0:	d2800043 	mov	x3, #0x2                   	// #2
  4049f4:	f2c001e3 	movk	x3, #0xf, lsl #32
  4049f8:	f9000003 	str	x3, [x0]
  4049fc:	d503201f 	nop
  404a00:	910b0288 	add	x8, x20, #0x2c0
  404a04:	cb33cc49 	sub	x9, x2, w19, sxtw #3
  404a08:	9106e10b 	add	x11, x8, #0x1b8
  404a0c:	cb338025 	sub	x5, x1, w19, sxtb
  404a10:	f0000263 	adrp	x3, 453000 <_IO_stdin_used+0xf0>
  404a14:	91124063 	add	x3, x3, #0x490
  404a18:	f9000520 	str	x0, [x9, #8]
  404a1c:	91002122 	add	x2, x9, #0x8
  404a20:	38fc6961 	ldrsb	w1, [x11, x28]
  404a24:	39c000a9 	ldrsb	w9, [x5]
  404a28:	51004020 	sub	w0, w1, #0x10
  404a2c:	38e0c861 	ldrsb	w1, [x3, w0, sxtw]
  404a30:	0b090021 	add	w1, w1, w9
  404a34:	7100e03f 	cmp	w1, #0x38
  404a38:	540000a8 	b.hi	404a4c <__gettextparse+0x1ec>  // b.pmore
  404a3c:	91042103 	add	x3, x8, #0x108
  404a40:	38e1c863 	ldrsb	w3, [x3, w1, sxtw]
  404a44:	6b09007f 	cmp	w3, w9
  404a48:	540018a0 	b.eq	404d5c <__gettextparse+0x4fc>  // b.none
  404a4c:	f0000261 	adrp	x1, 453000 <_IO_stdin_used+0xf0>
  404a50:	91122021 	add	x1, x1, #0x488
  404a54:	38e0c820 	ldrsb	w0, [x1, w0, sxtw]
  404a58:	2a0003f3 	mov	w19, w0
  404a5c:	d1000748 	sub	x8, x26, #0x1
  404a60:	910004a1 	add	x1, x5, #0x1
  404a64:	8b080328 	add	x8, x25, x8
  404a68:	390004a0 	strb	w0, [x5, #1]
  404a6c:	eb08003f 	cmp	x1, x8
  404a70:	54000603 	b.cc	404b30 <__gettextparse+0x2d0>  // b.lo, b.ul, b.last
  404a74:	cb190020 	sub	x0, x1, x25
  404a78:	aa0003e1 	mov	x1, x0
  404a7c:	f9003fe1 	str	x1, [sp, #120]
  404a80:	9100043b 	add	x27, x1, #0x1
  404a84:	d284e1e0 	mov	x0, #0x270f                	// #9999
  404a88:	eb00035f 	cmp	x26, x0
  404a8c:	540033ec 	b.gt	405108 <__gettextparse+0x8a8>
  404a90:	d37ffb46 	lsl	x6, x26, #1
  404a94:	d284e200 	mov	x0, #0x2710                	// #10000
  404a98:	eb0000df 	cmp	x6, x0
  404a9c:	9a80d0da 	csel	x26, x6, x0, le
  404aa0:	8b1a0f40 	add	x0, x26, x26, lsl #3
  404aa4:	91001c00 	add	x0, x0, #0x7
  404aa8:	94004efa 	bl	418690 <__libc_malloc>
  404aac:	aa0003fc 	mov	x28, x0
  404ab0:	b40032c0 	cbz	x0, 405108 <__gettextparse+0x8a8>
  404ab4:	aa1b03e2 	mov	x2, x27
  404ab8:	aa1903e1 	mov	x1, x25
  404abc:	97ffedfd 	bl	4002b0 <.plt+0x10>
  404ac0:	91001f48 	add	x8, x26, #0x7
  404ac4:	d37df362 	lsl	x2, x27, #3
  404ac8:	927df108 	and	x8, x8, #0xfffffffffffffff8
  404acc:	f94033e1 	ldr	x1, [sp, #96]
  404ad0:	8b080388 	add	x8, x28, x8
  404ad4:	aa0803e0 	mov	x0, x8
  404ad8:	f90033e2 	str	x2, [sp, #96]
  404adc:	97ffedf5 	bl	4002b0 <.plt+0x10>
  404ae0:	aa0003e8 	mov	x8, x0
  404ae4:	eb17033f 	cmp	x25, x23
  404ae8:	f94033e2 	ldr	x2, [sp, #96]
  404aec:	540000e0 	b.eq	404b08 <__gettextparse+0x2a8>  // b.none
  404af0:	aa1903e0 	mov	x0, x25
  404af4:	f90033e8 	str	x8, [sp, #96]
  404af8:	f9004be2 	str	x2, [sp, #144]
  404afc:	94005055 	bl	418c50 <__free>
  404b00:	f94033e8 	ldr	x8, [sp, #96]
  404b04:	f9404be2 	ldr	x2, [sp, #144]
  404b08:	d1000740 	sub	x0, x26, #0x1
  404b0c:	f9403fe1 	ldr	x1, [sp, #120]
  404b10:	d1002042 	sub	x2, x2, #0x8
  404b14:	8b000380 	add	x0, x28, x0
  404b18:	8b020102 	add	x2, x8, x2
  404b1c:	8b010381 	add	x1, x28, x1
  404b20:	eb00003f 	cmp	x1, x0
  404b24:	54002ec2 	b.cs	4050fc <__gettextparse+0x89c>  // b.hs, b.nlast
  404b28:	aa1c03f9 	mov	x25, x28
  404b2c:	f90033e8 	str	x8, [sp, #96]
  404b30:	7100267f 	cmp	w19, #0x9
  404b34:	54ffed01 	b.ne	4048d4 <__gettextparse+0x74>  // b.any
  404b38:	52800013 	mov	w19, #0x0                   	// #0
  404b3c:	1400002f 	b	404bf8 <__gettextparse+0x398>
  404b40:	910b0283 	add	x3, x20, #0x2c0
  404b44:	91062063 	add	x3, x3, #0x188
  404b48:	38e96863 	ldrsb	w3, [x3, x9]
  404b4c:	35fff123 	cbnz	w3, 404970 <__gettextparse+0x110>
  404b50:	b94077e3 	ldr	w3, [sp, #116]
  404b54:	71000c7f 	cmp	w3, #0x3
  404b58:	54000081 	b.ne	404b68 <__gettextparse+0x308>  // b.any
  404b5c:	710002df 	cmp	w22, #0x0
  404b60:	54000dcc 	b.gt	404d18 <__gettextparse+0x4b8>
  404b64:	54000480 	b.eq	404bf4 <__gettextparse+0x394>  // b.none
  404b68:	f94037e3 	ldr	x3, [sp, #104]
  404b6c:	91126305 	add	x5, x24, #0x498
  404b70:	91052068 	add	x8, x3, #0x148
  404b74:	14000006 	b	404b8c <__gettextparse+0x32c>
  404b78:	eb19003f 	cmp	x1, x25
  404b7c:	540003c0 	b.eq	404bf4 <__gettextparse+0x394>  // b.none
  404b80:	38dffc20 	ldrsb	w0, [x1, #-1]!
  404b84:	d1002042 	sub	x2, x2, #0x8
  404b88:	38e0c8a0 	ldrsb	w0, [x5, w0, sxtw]
  404b8c:	3100101f 	cmn	w0, #0x4
  404b90:	54ffff40 	b.eq	404b78 <__gettextparse+0x318>  // b.none
  404b94:	11000400 	add	w0, w0, #0x1
  404b98:	7100e01f 	cmp	w0, #0x38
  404b9c:	54fffee8 	b.hi	404b78 <__gettextparse+0x318>  // b.pmore
  404ba0:	38e0caa3 	ldrsb	w3, [x21, w0, sxtw]
  404ba4:	7100047f 	cmp	w3, #0x1
  404ba8:	54fffe81 	b.ne	404b78 <__gettextparse+0x318>  // b.any
  404bac:	38e0c900 	ldrsb	w0, [x8, w0, sxtw]
  404bb0:	2a0003f3 	mov	w19, w0
  404bb4:	7100001f 	cmp	w0, #0x0
  404bb8:	54fffe0d 	b.le	404b78 <__gettextparse+0x318>
  404bbc:	aa0103e5 	mov	x5, x1
  404bc0:	52800061 	mov	w1, #0x3                   	// #3
  404bc4:	b90077e1 	str	w1, [sp, #116]
  404bc8:	91002042 	add	x2, x2, #0x8
  404bcc:	f9404fe1 	ldr	x1, [sp, #152]
  404bd0:	f9000041 	str	x1, [x2]
  404bd4:	17ffffa2 	b	404a5c <__gettextparse+0x1fc>
  404bd8:	7100087f 	cmp	w3, #0x2
  404bdc:	54fff121 	b.ne	404a00 <__gettextparse+0x1a0>  // b.any
  404be0:	f9400043 	ldr	x3, [x2]
  404be4:	b4000083 	cbz	x3, 404bf4 <__gettextparse+0x394>
  404be8:	f94047e4 	ldr	x4, [sp, #136]
  404bec:	f9000483 	str	x3, [x4, #8]
  404bf0:	17ffff84 	b	404a00 <__gettextparse+0x1a0>
  404bf4:	52800033 	mov	w19, #0x1                   	// #1
  404bf8:	eb17033f 	cmp	x25, x23
  404bfc:	54000060 	b.eq	404c08 <__gettextparse+0x3a8>  // b.none
  404c00:	aa1903e0 	mov	x0, x25
  404c04:	94005013 	bl	418c50 <__free>
  404c08:	f94043e0 	ldr	x0, [sp, #128]
  404c0c:	f945dc16 	ldr	x22, [x0, #3000]
  404c10:	f943dfe0 	ldr	x0, [sp, #1976]
  404c14:	f94002c1 	ldr	x1, [x22]
  404c18:	eb010000 	subs	x0, x0, x1
  404c1c:	d2800001 	mov	x1, #0x0                   	// #0
  404c20:	54002941 	b.ne	405148 <__gettextparse+0x8e8>  // b.any
  404c24:	2a1303e0 	mov	w0, w19
  404c28:	a9407bfd 	ldp	x29, x30, [sp]
  404c2c:	a94153f3 	ldp	x19, x20, [sp, #16]
  404c30:	a9425bf5 	ldp	x21, x22, [sp, #32]
  404c34:	a94363f7 	ldp	x23, x24, [sp, #48]
  404c38:	a9446bf9 	ldp	x25, x26, [sp, #64]
  404c3c:	a94573fb 	ldp	x27, x28, [sp, #80]
  404c40:	911f03ff 	add	sp, sp, #0x7c0
  404c44:	d65f03c0 	ret
  404c48:	7100187f 	cmp	w3, #0x6
  404c4c:	54000060 	b.eq	404c58 <__gettextparse+0x3f8>  // b.none
  404c50:	71001c7f 	cmp	w3, #0x7
  404c54:	54ffed61 	b.ne	404a00 <__gettextparse+0x1a0>  // b.any
  404c58:	f9400043 	ldr	x3, [x2]
  404c5c:	f85f0048 	ldur	x8, [x2, #-16]
  404c60:	f100007f 	cmp	x3, #0x0
  404c64:	b85f805b 	ldur	w27, [x2, #-8]
  404c68:	fa401904 	ccmp	x8, #0x0, #0x4, ne  // ne = any
  404c6c:	54000800 	b.eq	404d6c <__gettextparse+0x50c>  // b.none
  404c70:	d2800400 	mov	x0, #0x20                  	// #32
  404c74:	f9003fe8 	str	x8, [sp, #120]
  404c78:	f9004be3 	str	x3, [sp, #144]
  404c7c:	a90a0be1 	stp	x1, x2, [sp, #160]
  404c80:	94004e84 	bl	418690 <__libc_malloc>
  404c84:	f9403fe8 	ldr	x8, [sp, #120]
  404c88:	f9404be3 	ldr	x3, [sp, #144]
  404c8c:	a94a0be1 	ldp	x1, x2, [sp, #160]
  404c90:	b40006e0 	cbz	x0, 404d6c <__gettextparse+0x50c>
  404c94:	52800049 	mov	w9, #0x2                   	// #2
  404c98:	29006c09 	stp	w9, w27, [x0]
  404c9c:	a9008c08 	stp	x8, x3, [x0, #8]
  404ca0:	17ffff58 	b	404a00 <__gettextparse+0x1a0>
  404ca4:	71002c7f 	cmp	w3, #0xb
  404ca8:	54001fc0 	b.eq	4050a0 <__gettextparse+0x840>  // b.none
  404cac:	540000ed 	b.le	404cc8 <__gettextparse+0x468>
  404cb0:	7100307f 	cmp	w3, #0xc
  404cb4:	54001de0 	b.eq	405070 <__gettextparse+0x810>  // b.none
  404cb8:	7100347f 	cmp	w3, #0xd
  404cbc:	54ffea21 	b.ne	404a00 <__gettextparse+0x1a0>  // b.any
  404cc0:	f85f8040 	ldur	x0, [x2, #-8]
  404cc4:	17ffff4f 	b	404a00 <__gettextparse+0x1a0>
  404cc8:	7100247f 	cmp	w3, #0x9
  404ccc:	54fffc60 	b.eq	404c58 <__gettextparse+0x3f8>  // b.none
  404cd0:	7100287f 	cmp	w3, #0xa
  404cd4:	54ffe961 	b.ne	404a00 <__gettextparse+0x1a0>  // b.any
  404cd8:	f940005b 	ldr	x27, [x2]
  404cdc:	b400129b 	cbz	x27, 404f2c <__gettextparse+0x6cc>
  404ce0:	d2800400 	mov	x0, #0x20                  	// #32
  404ce4:	f9003fe1 	str	x1, [sp, #120]
  404ce8:	f9004be2 	str	x2, [sp, #144]
  404cec:	94004e69 	bl	418690 <__libc_malloc>
  404cf0:	f9403fe1 	ldr	x1, [sp, #120]
  404cf4:	f9404be2 	ldr	x2, [sp, #144]
  404cf8:	b40011a0 	cbz	x0, 404f2c <__gettextparse+0x6cc>
  404cfc:	d2800023 	mov	x3, #0x1                   	// #1
  404d00:	f2c00043 	movk	x3, #0x2, lsl #32
  404d04:	a9006c03 	stp	x3, x27, [x0]
  404d08:	17ffff3e 	b	404a00 <__gettextparse+0x1a0>
  404d0c:	5280000b 	mov	w11, #0x0                   	// #0
  404d10:	52800016 	mov	w22, #0x0                   	// #0
  404d14:	17fffeff 	b	404910 <__gettextparse+0xb0>
  404d18:	12800036 	mov	w22, #0xfffffffe            	// #-2
  404d1c:	17ffff93 	b	404b68 <__gettextparse+0x308>
  404d20:	f94047e3 	ldr	x3, [sp, #136]
  404d24:	f9400065 	ldr	x5, [x3]
  404d28:	14000006 	b	404d40 <__gettextparse+0x4e0>
  404d2c:	7100807f 	cmp	w3, #0x20
  404d30:	aa0503ea 	mov	x10, x5
  404d34:	7a491864 	ccmp	w3, #0x9, #0x4, ne  // ne = any
  404d38:	910004a5 	add	x5, x5, #0x1
  404d3c:	54000481 	b.ne	404dcc <__gettextparse+0x56c>  // b.any
  404d40:	394000a3 	ldrb	w3, [x5]
  404d44:	35ffff43 	cbnz	w3, 404d2c <__gettextparse+0x4cc>
  404d48:	f94047e3 	ldr	x3, [sp, #136]
  404d4c:	5280000b 	mov	w11, #0x0                   	// #0
  404d50:	52800016 	mov	w22, #0x0                   	// #0
  404d54:	f9000065 	str	x5, [x3]
  404d58:	17fffeee 	b	404910 <__gettextparse+0xb0>
  404d5c:	91052108 	add	x8, x8, #0x148
  404d60:	38e1c900 	ldrsb	w0, [x8, w1, sxtw]
  404d64:	2a0003f3 	mov	w19, w0
  404d68:	17ffff3d 	b	404a5c <__gettextparse+0x1fc>
  404d6c:	aa0303e0 	mov	x0, x3
  404d70:	f9003fe8 	str	x8, [sp, #120]
  404d74:	f9004be1 	str	x1, [sp, #144]
  404d78:	f90053e2 	str	x2, [sp, #160]
  404d7c:	97fffe9d 	bl	4047f0 <__gettext_free_exp>
  404d80:	f9403fe8 	ldr	x8, [sp, #120]
  404d84:	aa0803e0 	mov	x0, x8
  404d88:	97fffe9a 	bl	4047f0 <__gettext_free_exp>
  404d8c:	d2800000 	mov	x0, #0x0                   	// #0
  404d90:	f9404be1 	ldr	x1, [sp, #144]
  404d94:	f94053e2 	ldr	x2, [sp, #160]
  404d98:	17ffff1a 	b	404a00 <__gettextparse+0x1a0>
  404d9c:	aa1b03e0 	mov	x0, x27
  404da0:	f9003fe3 	str	x3, [sp, #120]
  404da4:	f9004be1 	str	x1, [sp, #144]
  404da8:	f90053e2 	str	x2, [sp, #160]
  404dac:	97fffe91 	bl	4047f0 <__gettext_free_exp>
  404db0:	f9403fe3 	ldr	x3, [sp, #120]
  404db4:	aa0303e0 	mov	x0, x3
  404db8:	97fffe8e 	bl	4047f0 <__gettext_free_exp>
  404dbc:	d2800000 	mov	x0, #0x0                   	// #0
  404dc0:	f9404be1 	ldr	x1, [sp, #144]
  404dc4:	f94053e2 	ldr	x2, [sp, #160]
  404dc8:	17ffff0e 	b	404a00 <__gettextparse+0x1a0>
  404dcc:	5100286b 	sub	w11, w3, #0xa
  404dd0:	2a0303f6 	mov	w22, w3
  404dd4:	7101c97f 	cmp	w11, #0x72
  404dd8:	54000109 	b.ls	404df8 <__gettextparse+0x598>  // b.plast
  404ddc:	f94047e3 	ldr	x3, [sp, #136]
  404de0:	5280004b 	mov	w11, #0x2                   	// #2
  404de4:	52802036 	mov	w22, #0x101                 	// #257
  404de8:	f9000065 	str	x5, [x3]
  404dec:	17fffec8 	b	40490c <__gettextparse+0xac>
  404df0:	52802036 	mov	w22, #0x101                 	// #257
  404df4:	17ffff5d 	b	404b68 <__gettextparse+0x308>
  404df8:	f000026c 	adrp	x12, 453000 <_IO_stdin_used+0xf0>
  404dfc:	9107618c 	add	x12, x12, #0x1d8
  404e00:	786b5984 	ldrh	w4, [x12, w11, uxtw #1]
  404e04:	10000066 	adr	x6, 404e10 <__gettextparse+0x5b0>
  404e08:	8b24a8c4 	add	x4, x6, w4, sxth #2
  404e0c:	d61f0080 	br	x4
  404e10:	f940005b 	ldr	x27, [x2]
  404e14:	f85f0043 	ldur	x3, [x2, #-16]
  404e18:	f100037f 	cmp	x27, #0x0
  404e1c:	fa401864 	ccmp	x3, #0x0, #0x4, ne  // ne = any
  404e20:	54fffbe0 	b.eq	404d9c <__gettextparse+0x53c>  // b.none
  404e24:	d2800400 	mov	x0, #0x20                  	// #32
  404e28:	f9003fe3 	str	x3, [sp, #120]
  404e2c:	f9004be1 	str	x1, [sp, #144]
  404e30:	f90053e2 	str	x2, [sp, #160]
  404e34:	94004e17 	bl	418690 <__libc_malloc>
  404e38:	f9403fe3 	ldr	x3, [sp, #120]
  404e3c:	f9404be1 	ldr	x1, [sp, #144]
  404e40:	f94053e2 	ldr	x2, [sp, #160]
  404e44:	b4fffac0 	cbz	x0, 404d9c <__gettextparse+0x53c>
  404e48:	a900ec03 	stp	x3, x27, [x0, #8]
  404e4c:	d2800043 	mov	x3, #0x2                   	// #2
  404e50:	f2c001c3 	movk	x3, #0xe, lsl #32
  404e54:	f9000003 	str	x3, [x0]
  404e58:	17fffeea 	b	404a00 <__gettextparse+0x1a0>
  404e5c:	f940005b 	ldr	x27, [x2]
  404e60:	f85f0043 	ldur	x3, [x2, #-16]
  404e64:	f100037f 	cmp	x27, #0x0
  404e68:	f85e0048 	ldur	x8, [x2, #-32]
  404e6c:	fa401864 	ccmp	x3, #0x0, #0x4, ne  // ne = any
  404e70:	fa401904 	ccmp	x8, #0x0, #0x4, ne  // ne = any
  404e74:	54001280 	b.eq	4050c4 <__gettextparse+0x864>  // b.none
  404e78:	d2800400 	mov	x0, #0x20                  	// #32
  404e7c:	f9003fe8 	str	x8, [sp, #120]
  404e80:	f9004be3 	str	x3, [sp, #144]
  404e84:	a90a0be1 	stp	x1, x2, [sp, #160]
  404e88:	94004e02 	bl	418690 <__libc_malloc>
  404e8c:	f9403fe8 	ldr	x8, [sp, #120]
  404e90:	f9404be3 	ldr	x3, [sp, #144]
  404e94:	a94a0be1 	ldp	x1, x2, [sp, #160]
  404e98:	b4001160 	cbz	x0, 4050c4 <__gettextparse+0x864>
  404e9c:	a9008c08 	stp	x8, x3, [x0, #8]
  404ea0:	d2800068 	mov	x8, #0x3                   	// #3
  404ea4:	f2c00208 	movk	x8, #0x10, lsl #32
  404ea8:	f9000008 	str	x8, [x0]
  404eac:	f9000c1b 	str	x27, [x0, #24]
  404eb0:	17fffed4 	b	404a00 <__gettextparse+0x1a0>
  404eb4:	39400548 	ldrb	w8, [x10, #1]
  404eb8:	5100c063 	sub	w3, w3, #0x30
  404ebc:	5100c107 	sub	w7, w8, #0x30
  404ec0:	93407c63 	sxtw	x3, w3
  404ec4:	12001ce8 	and	w8, w7, #0xff
  404ec8:	7100251f 	cmp	w8, #0x9
  404ecc:	54000128 	b.hi	404ef0 <__gettextparse+0x690>  // b.pmore
  404ed0:	38401ca8 	ldrb	w8, [x5, #1]!
  404ed4:	93407cea 	sxtw	x10, w7
  404ed8:	8b030863 	add	x3, x3, x3, lsl #2
  404edc:	5100c107 	sub	w7, w8, #0x30
  404ee0:	12001ce8 	and	w8, w7, #0xff
  404ee4:	8b030543 	add	x3, x10, x3, lsl #1
  404ee8:	7100251f 	cmp	w8, #0x9
  404eec:	54ffff29 	b.ls	404ed0 <__gettextparse+0x670>  // b.plast
  404ef0:	f9004fe3 	str	x3, [sp, #152]
  404ef4:	5280016b 	mov	w11, #0xb                   	// #11
  404ef8:	f94047e3 	ldr	x3, [sp, #136]
  404efc:	528020d6 	mov	w22, #0x106                 	// #262
  404f00:	f9000065 	str	x5, [x3]
  404f04:	17fffe82 	b	40490c <__gettextparse+0xac>
  404f08:	39400548 	ldrb	w8, [x10, #1]
  404f0c:	6b03011f 	cmp	w8, w3
  404f10:	54fff661 	b.ne	404ddc <__gettextparse+0x57c>  // b.any
  404f14:	91000945 	add	x5, x10, #0x2
  404f18:	f94037e4 	ldr	x4, [sp, #104]
  404f1c:	38e3c88b 	ldrsb	w11, [x4, w3, sxtw]
  404f20:	f94047e3 	ldr	x3, [sp, #136]
  404f24:	f9000065 	str	x5, [x3]
  404f28:	17fffe79 	b	40490c <__gettextparse+0xac>
  404f2c:	aa1b03e0 	mov	x0, x27
  404f30:	f9003fe1 	str	x1, [sp, #120]
  404f34:	f9004be2 	str	x2, [sp, #144]
  404f38:	97fffe2e 	bl	4047f0 <__gettext_free_exp>
  404f3c:	d2800000 	mov	x0, #0x0                   	// #0
  404f40:	f9403fe1 	ldr	x1, [sp, #120]
  404f44:	f9404be2 	ldr	x2, [sp, #144]
  404f48:	17fffeae 	b	404a00 <__gettextparse+0x1a0>
  404f4c:	f94047e3 	ldr	x3, [sp, #136]
  404f50:	5280000b 	mov	w11, #0x0                   	// #0
  404f54:	52800016 	mov	w22, #0x0                   	// #0
  404f58:	f900006a 	str	x10, [x3]
  404f5c:	17fffe6d 	b	404910 <__gettextparse+0xb0>
  404f60:	d28000a3 	mov	x3, #0x5                   	// #5
  404f64:	f9404fe4 	ldr	x4, [sp, #152]
  404f68:	5280014b 	mov	w11, #0xa                   	// #10
  404f6c:	528020b6 	mov	w22, #0x105                 	// #261
  404f70:	b3407c64 	bfxil	x4, x3, #0, #32
  404f74:	f9004fe4 	str	x4, [sp, #152]
  404f78:	f94047e3 	ldr	x3, [sp, #136]
  404f7c:	f9000065 	str	x5, [x3]
  404f80:	17fffe63 	b	40490c <__gettextparse+0xac>
  404f84:	d2800083 	mov	x3, #0x4                   	// #4
  404f88:	17fffff7 	b	404f64 <__gettextparse+0x704>
  404f8c:	d2800063 	mov	x3, #0x3                   	// #3
  404f90:	17fffff5 	b	404f64 <__gettextparse+0x704>
  404f94:	39400543 	ldrb	w3, [x10, #1]
  404f98:	7100f47f 	cmp	w3, #0x3d
  404f9c:	54000d20 	b.eq	405140 <__gettextparse+0x8e0>  // b.none
  404fa0:	f94047e3 	ldr	x3, [sp, #136]
  404fa4:	528000cb 	mov	w11, #0x6                   	// #6
  404fa8:	52800436 	mov	w22, #0x21                  	// #33
  404fac:	f9000065 	str	x5, [x3]
  404fb0:	17fffe57 	b	40490c <__gettextparse+0xac>
  404fb4:	d28000e3 	mov	x3, #0x7                   	// #7
  404fb8:	f9404fe4 	ldr	x4, [sp, #152]
  404fbc:	5280012b 	mov	w11, #0x9                   	// #9
  404fc0:	52802096 	mov	w22, #0x104                 	// #260
  404fc4:	b3407c64 	bfxil	x4, x3, #0, #32
  404fc8:	f9004fe4 	str	x4, [sp, #152]
  404fcc:	f94047e3 	ldr	x3, [sp, #136]
  404fd0:	f9000065 	str	x5, [x3]
  404fd4:	17fffe4e 	b	40490c <__gettextparse+0xac>
  404fd8:	d28000c3 	mov	x3, #0x6                   	// #6
  404fdc:	17fffff7 	b	404fb8 <__gettextparse+0x758>
  404fe0:	39400543 	ldrb	w3, [x10, #1]
  404fe4:	7100f47f 	cmp	w3, #0x3d
  404fe8:	54000a80 	b.eq	405138 <__gettextparse+0x8d8>  // b.none
  404fec:	f9404fe4 	ldr	x4, [sp, #152]
  404ff0:	d2800123 	mov	x3, #0x9                   	// #9
  404ff4:	5280010b 	mov	w11, #0x8                   	// #8
  404ff8:	52802076 	mov	w22, #0x103                 	// #259
  404ffc:	b3407c64 	bfxil	x4, x3, #0, #32
  405000:	f9004fe4 	str	x4, [sp, #152]
  405004:	f94047e3 	ldr	x3, [sp, #136]
  405008:	f9000065 	str	x5, [x3]
  40500c:	17fffe40 	b	40490c <__gettextparse+0xac>
  405010:	39400543 	ldrb	w3, [x10, #1]
  405014:	7100f47f 	cmp	w3, #0x3d
  405018:	54ffee21 	b.ne	404ddc <__gettextparse+0x57c>  // b.any
  40501c:	d2800183 	mov	x3, #0xc                   	// #12
  405020:	f9404fe4 	ldr	x4, [sp, #152]
  405024:	9100094a 	add	x10, x10, #0x2
  405028:	528000eb 	mov	w11, #0x7                   	// #7
  40502c:	52802056 	mov	w22, #0x102                 	// #258
  405030:	b3407c64 	bfxil	x4, x3, #0, #32
  405034:	f9004fe4 	str	x4, [sp, #152]
  405038:	f94047e3 	ldr	x3, [sp, #136]
  40503c:	f900006a 	str	x10, [x3]
  405040:	17fffe33 	b	40490c <__gettextparse+0xac>
  405044:	39400543 	ldrb	w3, [x10, #1]
  405048:	7100f47f 	cmp	w3, #0x3d
  40504c:	54000620 	b.eq	405110 <__gettextparse+0x8b0>  // b.none
  405050:	f9404fe3 	ldr	x3, [sp, #152]
  405054:	d280010b 	mov	x11, #0x8                   	// #8
  405058:	52802076 	mov	w22, #0x103                 	// #259
  40505c:	b3407d63 	bfxil	x3, x11, #0, #32
  405060:	f9004fe3 	str	x3, [sp, #152]
  405064:	f94047e3 	ldr	x3, [sp, #136]
  405068:	f9000065 	str	x5, [x3]
  40506c:	17fffe28 	b	40490c <__gettextparse+0xac>
  405070:	d2800400 	mov	x0, #0x20                  	// #32
  405074:	f9003fe1 	str	x1, [sp, #120]
  405078:	f9004be2 	str	x2, [sp, #144]
  40507c:	94004d85 	bl	418690 <__libc_malloc>
  405080:	f9403fe1 	ldr	x1, [sp, #120]
  405084:	f9404be2 	ldr	x2, [sp, #144]
  405088:	b4ffcbc0 	cbz	x0, 404a00 <__gettextparse+0x1a0>
  40508c:	f9400043 	ldr	x3, [x2]
  405090:	f9000403 	str	x3, [x0, #8]
  405094:	d2c00023 	mov	x3, #0x100000000           	// #4294967296
  405098:	f9000003 	str	x3, [x0]
  40509c:	17fffe59 	b	404a00 <__gettextparse+0x1a0>
  4050a0:	d2800400 	mov	x0, #0x20                  	// #32
  4050a4:	f9003fe1 	str	x1, [sp, #120]
  4050a8:	f9004be2 	str	x2, [sp, #144]
  4050ac:	94004d79 	bl	418690 <__libc_malloc>
  4050b0:	f9403fe1 	ldr	x1, [sp, #120]
  4050b4:	f9404be2 	ldr	x2, [sp, #144]
  4050b8:	b4ffca40 	cbz	x0, 404a00 <__gettextparse+0x1a0>
  4050bc:	f900001f 	str	xzr, [x0]
  4050c0:	17fffe50 	b	404a00 <__gettextparse+0x1a0>
  4050c4:	aa1b03e0 	mov	x0, x27
  4050c8:	f9003fe8 	str	x8, [sp, #120]
  4050cc:	f9004be3 	str	x3, [sp, #144]
  4050d0:	a90a0be1 	stp	x1, x2, [sp, #160]
  4050d4:	97fffdc7 	bl	4047f0 <__gettext_free_exp>
  4050d8:	f9404be3 	ldr	x3, [sp, #144]
  4050dc:	aa0303e0 	mov	x0, x3
  4050e0:	97fffdc4 	bl	4047f0 <__gettext_free_exp>
  4050e4:	f9403fe8 	ldr	x8, [sp, #120]
  4050e8:	aa0803e0 	mov	x0, x8
  4050ec:	97fffdc1 	bl	4047f0 <__gettext_free_exp>
  4050f0:	d2800000 	mov	x0, #0x0                   	// #0
  4050f4:	a94a0be1 	ldp	x1, x2, [sp, #160]
  4050f8:	17fffe42 	b	404a00 <__gettextparse+0x1a0>
  4050fc:	aa1c03f9 	mov	x25, x28
  405100:	52800033 	mov	w19, #0x1                   	// #1
  405104:	17fffebf 	b	404c00 <__gettextparse+0x3a0>
  405108:	52800053 	mov	w19, #0x2                   	// #2
  40510c:	17fffebb 	b	404bf8 <__gettextparse+0x398>
  405110:	d2800143 	mov	x3, #0xa                   	// #10
  405114:	f9404fe4 	ldr	x4, [sp, #152]
  405118:	9100094a 	add	x10, x10, #0x2
  40511c:	5280010b 	mov	w11, #0x8                   	// #8
  405120:	52802076 	mov	w22, #0x103                 	// #259
  405124:	b3407c64 	bfxil	x4, x3, #0, #32
  405128:	f9004fe4 	str	x4, [sp, #152]
  40512c:	f94047e3 	ldr	x3, [sp, #136]
  405130:	f900006a 	str	x10, [x3]
  405134:	17fffdf6 	b	40490c <__gettextparse+0xac>
  405138:	d2800163 	mov	x3, #0xb                   	// #11
  40513c:	17fffff6 	b	405114 <__gettextparse+0x8b4>
  405140:	d28001a3 	mov	x3, #0xd                   	// #13
  405144:	17ffffb7 	b	405020 <__gettextparse+0x7c0>
  405148:	94006f9a 	bl	420fb0 <__stack_chk_fail>
  40514c:	d503201f 	nop

0000000000405150 <__gettext_extract_plural>:
  405150:	a9ba7bfd 	stp	x29, x30, [sp, #-96]!
  405154:	910003fd 	mov	x29, sp
  405158:	f9001bf7 	str	x23, [sp, #48]
  40515c:	90000437 	adrp	x23, 489000 <_nl_C_LC_IDENTIFICATION+0xa8>
  405160:	a90153f3 	stp	x19, x20, [sp, #16]
  405164:	aa0203f4 	mov	x20, x2
  405168:	f945dee3 	ldr	x3, [x23, #3000]
  40516c:	a9025bf5 	stp	x21, x22, [sp, #32]
  405170:	aa0103f5 	mov	x21, x1
  405174:	f9400061 	ldr	x1, [x3]
  405178:	f9002fe1 	str	x1, [sp, #88]
  40517c:	d2800001 	mov	x1, #0x0                   	// #0
  405180:	b40005c0 	cbz	x0, 405238 <__gettext_extract_plural+0xe8>
  405184:	aa0003f3 	mov	x19, x0
  405188:	d0000261 	adrp	x1, 453000 <_IO_stdin_used+0xf0>
  40518c:	9112e021 	add	x1, x1, #0x4b8
  405190:	940057ec 	bl	41b140 <strstr>
  405194:	d0000261 	adrp	x1, 453000 <_IO_stdin_used+0xf0>
  405198:	aa0003f6 	mov	x22, x0
  40519c:	91130021 	add	x1, x1, #0x4c0
  4051a0:	aa1303e0 	mov	x0, x19
  4051a4:	940057e7 	bl	41b140 <strstr>
  4051a8:	f10002df 	cmp	x22, #0x0
  4051ac:	fa401804 	ccmp	x0, #0x0, #0x4, ne  // ne = any
  4051b0:	54000440 	b.eq	405238 <__gettext_extract_plural+0xe8>  // b.none
  4051b4:	39402403 	ldrb	w3, [x0, #9]
  4051b8:	91002413 	add	x19, x0, #0x9
  4051bc:	340003e3 	cbz	w3, 405238 <__gettext_extract_plural+0xe8>
  4051c0:	90000420 	adrp	x0, 489000 <_nl_C_LC_IDENTIFICATION+0xa8>
  4051c4:	f9475800 	ldr	x0, [x0, #3760]
  4051c8:	d53bd041 	mrs	x1, tpidr_el0
  4051cc:	f8606821 	ldr	x1, [x1, x0]
  4051d0:	14000003 	b	4051dc <__gettext_extract_plural+0x8c>
  4051d4:	38401e63 	ldrb	w3, [x19, #1]!
  4051d8:	34000303 	cbz	w3, 405238 <__gettext_extract_plural+0xe8>
  4051dc:	d37f1c60 	ubfiz	x0, x3, #1, #8
  4051e0:	78606824 	ldrh	w4, [x1, x0]
  4051e4:	376fff84 	tbnz	w4, #13, 4051d4 <__gettext_extract_plural+0x84>
  4051e8:	5100c063 	sub	w3, w3, #0x30
  4051ec:	12001c63 	and	w3, w3, #0xff
  4051f0:	7100247f 	cmp	w3, #0x9
  4051f4:	54000228 	b.hi	405238 <__gettext_extract_plural+0xe8>  // b.pmore
  4051f8:	910103e1 	add	x1, sp, #0x40
  4051fc:	aa1303e0 	mov	x0, x19
  405200:	52800142 	mov	w2, #0xa                   	// #10
  405204:	94000404 	bl	406214 <__strtoul>
  405208:	f94023e1 	ldr	x1, [sp, #64]
  40520c:	eb13003f 	cmp	x1, x19
  405210:	54000140 	b.eq	405238 <__gettext_extract_plural+0xe8>  // b.none
  405214:	f9000280 	str	x0, [x20]
  405218:	91001ed6 	add	x22, x22, #0x7
  40521c:	910123e0 	add	x0, sp, #0x48
  405220:	f90027f6 	str	x22, [sp, #72]
  405224:	97fffd8f 	bl	404860 <__gettextparse>
  405228:	35000080 	cbnz	w0, 405238 <__gettext_extract_plural+0xe8>
  40522c:	f9402be0 	ldr	x0, [sp, #80]
  405230:	f90002a0 	str	x0, [x21]
  405234:	14000006 	b	40524c <__gettext_extract_plural+0xfc>
  405238:	d0000400 	adrp	x0, 487000 <cpu_list+0x18>
  40523c:	9101e000 	add	x0, x0, #0x78
  405240:	f90002a0 	str	x0, [x21]
  405244:	d2800040 	mov	x0, #0x2                   	// #2
  405248:	f9000280 	str	x0, [x20]
  40524c:	f945def7 	ldr	x23, [x23, #3000]
  405250:	f9402fe0 	ldr	x0, [sp, #88]
  405254:	f94002e1 	ldr	x1, [x23]
  405258:	eb010000 	subs	x0, x0, x1
  40525c:	d2800001 	mov	x1, #0x0                   	// #0
  405260:	540000c1 	b.ne	405278 <__gettext_extract_plural+0x128>  // b.any
  405264:	a94153f3 	ldp	x19, x20, [sp, #16]
  405268:	a9425bf5 	ldp	x21, x22, [sp, #32]
  40526c:	f9401bf7 	ldr	x23, [sp, #48]
  405270:	a8c67bfd 	ldp	x29, x30, [sp], #96
  405274:	d65f03c0 	ret
  405278:	94006f4e 	bl	420fb0 <__stack_chk_fail>
  40527c:	d503201f 	nop

0000000000405280 <__hash_string>:
  405280:	aa0003e2 	mov	x2, x0
  405284:	38401441 	ldrb	w1, [x2], #1
  405288:	92401c20 	and	x0, x1, #0xff
  40528c:	350000e1 	cbnz	w1, 4052a8 <__hash_string+0x28>
  405290:	1400000b 	b	4052bc <__hash_string+0x3c>
  405294:	8b001060 	add	x0, x3, x0, lsl #4
  405298:	f2640c01 	ands	x1, x0, #0xf0000000
  40529c:	9260ec03 	and	x3, x0, #0xffffffff0fffffff
  4052a0:	ca416061 	eor	x1, x3, x1, lsr #24
  4052a4:	9a810000 	csel	x0, x0, x1, eq  // eq = none
  4052a8:	39400041 	ldrb	w1, [x2]
  4052ac:	91000442 	add	x2, x2, #0x1
  4052b0:	92401c23 	and	x3, x1, #0xff
  4052b4:	35ffff01 	cbnz	w1, 405294 <__hash_string+0x14>
  4052b8:	d65f03c0 	ret
  4052bc:	d2800000 	mov	x0, #0x0                   	// #0
  4052c0:	d65f03c0 	ret
  4052c4:	d503201f 	nop
  4052c8:	d503201f 	nop
  4052cc:	d503201f 	nop
  4052d0:	d503201f 	nop
  4052d4:	d503201f 	nop
  4052d8:	d503201f 	nop
  4052dc:	d503201f 	nop
  4052e0:	d503201f 	nop
  4052e4:	d503201f 	nop
  4052e8:	d503201f 	nop
  4052ec:	d503201f 	nop
  4052f0:	d503201f 	nop
  4052f4:	d503201f 	nop
  4052f8:	d503201f 	nop
  4052fc:	d503201f 	nop

0000000000405300 <setjmp>:
  405300:	d2800021 	mov	x1, #0x1                   	// #1
  405304:	1400001f 	b	405380 <__sigsetjmp>
  405308:	d503201f 	nop
  40530c:	d503201f 	nop
  405310:	d503201f 	nop
  405314:	d503201f 	nop
  405318:	d503201f 	nop
  40531c:	d503201f 	nop
  405320:	d503201f 	nop
  405324:	d503201f 	nop
  405328:	d503201f 	nop
  40532c:	d503201f 	nop
  405330:	d503201f 	nop
  405334:	d503201f 	nop
  405338:	d503201f 	nop
  40533c:	d503201f 	nop

0000000000405340 <_setjmp>:
  405340:	d2800001 	mov	x1, #0x0                   	// #0
  405344:	1400000f 	b	405380 <__sigsetjmp>
  405348:	d503201f 	nop
  40534c:	d503201f 	nop
  405350:	d503201f 	nop
  405354:	d503201f 	nop
  405358:	d503201f 	nop
  40535c:	d503201f 	nop
  405360:	d503201f 	nop
  405364:	d503201f 	nop
  405368:	d503201f 	nop
  40536c:	d503201f 	nop
  405370:	d503201f 	nop
  405374:	d503201f 	nop
  405378:	d503201f 	nop
  40537c:	d503201f 	nop

0000000000405380 <__sigsetjmp>:
  405380:	a9005013 	stp	x19, x20, [x0]
  405384:	a9015815 	stp	x21, x22, [x0, #16]
  405388:	a9026017 	stp	x23, x24, [x0, #32]
  40538c:	a9036819 	stp	x25, x26, [x0, #48]
  405390:	a904701b 	stp	x27, x28, [x0, #64]
  405394:	90000422 	adrp	x2, 489000 <_nl_C_LC_IDENTIFICATION+0xa8>
  405398:	f9407c43 	ldr	x3, [x2, #248]
  40539c:	ca0303c4 	eor	x4, x30, x3
  4053a0:	a905101d 	stp	x29, x4, [x0, #80]
  4053a4:	6d072408 	stp	d8, d9, [x0, #112]
  4053a8:	6d082c0a 	stp	d10, d11, [x0, #128]
  4053ac:	6d09340c 	stp	d12, d13, [x0, #144]
  4053b0:	6d0a3c0e 	stp	d14, d15, [x0, #160]
  4053b4:	910003e4 	mov	x4, sp
  4053b8:	90000422 	adrp	x2, 489000 <_nl_C_LC_IDENTIFICATION+0xa8>
  4053bc:	f9407c43 	ldr	x3, [x2, #248]
  4053c0:	ca030085 	eor	x5, x4, x3
  4053c4:	f9003405 	str	x5, [x0, #104]
  4053c8:	14000002 	b	4053d0 <__sigjmp_save>
  4053cc:	d503201f 	nop

00000000004053d0 <__sigjmp_save>:
  4053d0:	a9be7bfd 	stp	x29, x30, [sp, #-32]!
  4053d4:	910003fd 	mov	x29, sp
  4053d8:	f9000bf3 	str	x19, [sp, #16]
  4053dc:	aa0003f3 	mov	x19, x0
  4053e0:	350000c1 	cbnz	w1, 4053f8 <__sigjmp_save+0x28>
  4053e4:	b900b261 	str	w1, [x19, #176]
  4053e8:	52800000 	mov	w0, #0x0                   	// #0
  4053ec:	f9400bf3 	ldr	x19, [sp, #16]
  4053f0:	a8c27bfd 	ldp	x29, x30, [sp], #32
  4053f4:	d65f03c0 	ret
  4053f8:	9102e002 	add	x2, x0, #0xb8
  4053fc:	d2800001 	mov	x1, #0x0                   	// #0
  405400:	52800000 	mov	w0, #0x0                   	// #0
  405404:	94000057 	bl	405560 <__sigprocmask>
  405408:	7100001f 	cmp	w0, #0x0
  40540c:	52800000 	mov	w0, #0x0                   	// #0
  405410:	1a9f17e1 	cset	w1, eq  // eq = none
  405414:	b900b261 	str	w1, [x19, #176]
  405418:	f9400bf3 	ldr	x19, [sp, #16]
  40541c:	a8c27bfd 	ldp	x29, x30, [sp], #32
  405420:	d65f03c0 	ret
  405424:	d503201f 	nop
  405428:	d503201f 	nop
  40542c:	d503201f 	nop

0000000000405430 <raise>:
  405430:	d0000263 	adrp	x3, 453000 <_IO_stdin_used+0xf0>
  405434:	91144063 	add	x3, x3, #0x510
  405438:	a9ad7bfd 	stp	x29, x30, [sp, #-304]!
  40543c:	90000425 	adrp	x5, 489000 <_nl_C_LC_IDENTIFICATION+0xa8>
  405440:	910003fd 	mov	x29, sp
  405444:	a9401c66 	ldp	x6, x7, [x3]
  405448:	f9000bf3 	str	x19, [sp, #16]
  40544c:	f945dca2 	ldr	x2, [x5, #3000]
  405450:	9102a3e1 	add	x1, sp, #0xa8
  405454:	a9422468 	ldp	x8, x9, [x3, #32]
  405458:	f9400044 	ldr	x4, [x2]
  40545c:	f90097e4 	str	x4, [sp, #296]
  405460:	d2800004 	mov	x4, #0x0                   	// #0
  405464:	a90a9fe6 	stp	x6, x7, [sp, #168]
  405468:	b25ff7e6 	mov	x6, #0xfffffffe7fffffff    	// #-6442450945
  40546c:	9100a3fe 	add	x30, sp, #0x28
  405470:	f90057e6 	str	x6, [sp, #168]
  405474:	2a0003e4 	mov	w4, w0
  405478:	a9414c72 	ldp	x18, x19, [x3, #16]
  40547c:	aa1e03e2 	mov	x2, x30
  405480:	a9434470 	ldp	x16, x17, [x3, #48]
  405484:	d2800000 	mov	x0, #0x0                   	// #0
  405488:	a9443c6e 	ldp	x14, x15, [x3, #64]
  40548c:	a90bcff2 	stp	x18, x19, [sp, #184]
  405490:	a945346c 	ldp	x12, x13, [x3, #80]
  405494:	a90ca7e8 	stp	x8, x9, [sp, #200]
  405498:	d28010e8 	mov	x8, #0x87                  	// #135
  40549c:	a9462c6a 	ldp	x10, x11, [x3, #96]
  4054a0:	a9062c2a 	stp	x10, x11, [x1, #96]
  4054a4:	a9471c66 	ldp	x6, x7, [x3, #112]
  4054a8:	d2800103 	mov	x3, #0x8                   	// #8
  4054ac:	a9071c26 	stp	x6, x7, [x1, #112]
  4054b0:	a90dc7f0 	stp	x16, x17, [sp, #216]
  4054b4:	a90ebfee 	stp	x14, x15, [sp, #232]
  4054b8:	a90fb7ec 	stp	x12, x13, [sp, #248]
  4054bc:	d4000001 	svc	#0x0
  4054c0:	d2801588 	mov	x8, #0xac                  	// #172
  4054c4:	d4000001 	svc	#0x0
  4054c8:	d2801648 	mov	x8, #0xb2                  	// #178
  4054cc:	aa0003e3 	mov	x3, x0
  4054d0:	d4000001 	svc	#0x0
  4054d4:	aa0003e1 	mov	x1, x0
  4054d8:	93407c82 	sxtw	x2, w4
  4054dc:	93407c60 	sxtw	x0, w3
  4054e0:	d2801068 	mov	x8, #0x83                  	// #131
  4054e4:	93407c21 	sxtw	x1, w1
  4054e8:	d4000001 	svc	#0x0
  4054ec:	b140041f 	cmn	x0, #0x1, lsl #12
  4054f0:	54000248 	b.hi	405538 <raise+0x108>  // b.pmore
  4054f4:	2a0003e4 	mov	w4, w0
  4054f8:	aa1e03e1 	mov	x1, x30
  4054fc:	d2800040 	mov	x0, #0x2                   	// #2
  405500:	d2800002 	mov	x2, #0x0                   	// #0
  405504:	d2800103 	mov	x3, #0x8                   	// #8
  405508:	d28010e8 	mov	x8, #0x87                  	// #135
  40550c:	d4000001 	svc	#0x0
  405510:	f945dca5 	ldr	x5, [x5, #3000]
  405514:	f94097e0 	ldr	x0, [sp, #296]
  405518:	f94000a1 	ldr	x1, [x5]
  40551c:	eb010000 	subs	x0, x0, x1
  405520:	d2800001 	mov	x1, #0x0                   	// #0
  405524:	54000181 	b.ne	405554 <raise+0x124>  // b.any
  405528:	2a0403e0 	mov	w0, w4
  40552c:	f9400bf3 	ldr	x19, [sp, #16]
  405530:	a8d37bfd 	ldp	x29, x30, [sp], #304
  405534:	d65f03c0 	ret
  405538:	90000421 	adrp	x1, 489000 <_nl_C_LC_IDENTIFICATION+0xa8>
  40553c:	f946e821 	ldr	x1, [x1, #3536]
  405540:	d53bd042 	mrs	x2, tpidr_el0
  405544:	4b0003e0 	neg	w0, w0
  405548:	12800004 	mov	w4, #0xffffffff            	// #-1
  40554c:	b8216840 	str	w0, [x2, x1]
  405550:	17ffffea 	b	4054f8 <raise+0xc8>
  405554:	94006e97 	bl	420fb0 <__stack_chk_fail>
  405558:	d503201f 	nop
  40555c:	d503201f 	nop

0000000000405560 <__sigprocmask>:
  405560:	a9b67bfd 	stp	x29, x30, [sp, #-160]!
  405564:	90000424 	adrp	x4, 489000 <_nl_C_LC_IDENTIFICATION+0xa8>
  405568:	aa0103e3 	mov	x3, x1
  40556c:	910003fd 	mov	x29, sp
  405570:	f945dc85 	ldr	x5, [x4, #3000]
  405574:	f94000a1 	ldr	x1, [x5]
  405578:	f9004fe1 	str	x1, [sp, #152]
  40557c:	d2800001 	mov	x1, #0x0                   	// #0
  405580:	d2800001 	mov	x1, #0x0                   	// #0
  405584:	b40000a3 	cbz	x3, 405598 <__sigprocmask+0x38>
  405588:	f9400061 	ldr	x1, [x3]
  40558c:	f261043f 	tst	x1, #0x180000000
  405590:	54000201 	b.ne	4055d0 <__sigprocmask+0x70>  // b.any
  405594:	aa0303e1 	mov	x1, x3
  405598:	93407c00 	sxtw	x0, w0
  40559c:	d2800103 	mov	x3, #0x8                   	// #8
  4055a0:	d28010e8 	mov	x8, #0x87                  	// #135
  4055a4:	d4000001 	svc	#0x0
  4055a8:	b140041f 	cmn	x0, #0x1, lsl #12
  4055ac:	54000468 	b.hi	405638 <__sigprocmask+0xd8>  // b.pmore
  4055b0:	f945dc84 	ldr	x4, [x4, #3000]
  4055b4:	f9404fe1 	ldr	x1, [sp, #152]
  4055b8:	f9400082 	ldr	x2, [x4]
  4055bc:	eb020021 	subs	x1, x1, x2
  4055c0:	d2800002 	mov	x2, #0x0                   	// #0
  4055c4:	54000481 	b.ne	405654 <__sigprocmask+0xf4>  // b.any
  4055c8:	a8ca7bfd 	ldp	x29, x30, [sp], #160
  4055cc:	d65f03c0 	ret
  4055d0:	a9422468 	ldp	x8, x9, [x3, #32]
  4055d4:	a903a7e8 	stp	x8, x9, [sp, #56]
  4055d8:	910063ea 	add	x10, sp, #0x18
  4055dc:	a9401c66 	ldp	x6, x7, [x3]
  4055e0:	a9019fe6 	stp	x6, x7, [sp, #24]
  4055e4:	925ff425 	and	x5, x1, #0xfffffffe7fffffff
  4055e8:	a9442468 	ldp	x8, x9, [x3, #64]
  4055ec:	a905a7e8 	stp	x8, x9, [sp, #88]
  4055f0:	aa0a03e1 	mov	x1, x10
  4055f4:	a9411c66 	ldp	x6, x7, [x3, #16]
  4055f8:	a9029fe6 	stp	x6, x7, [sp, #40]
  4055fc:	93407c00 	sxtw	x0, w0
  405600:	a9462468 	ldp	x8, x9, [x3, #96]
  405604:	f9000fe5 	str	x5, [sp, #24]
  405608:	a9431c66 	ldp	x6, x7, [x3, #48]
  40560c:	a9049fe6 	stp	x6, x7, [sp, #72]
  405610:	a9451c66 	ldp	x6, x7, [x3, #80]
  405614:	a9069fe6 	stp	x6, x7, [sp, #104]
  405618:	a9471c66 	ldp	x6, x7, [x3, #112]
  40561c:	d2800103 	mov	x3, #0x8                   	// #8
  405620:	a907a7e8 	stp	x8, x9, [sp, #120]
  405624:	d28010e8 	mov	x8, #0x87                  	// #135
  405628:	a9089fe6 	stp	x6, x7, [sp, #136]
  40562c:	d4000001 	svc	#0x0
  405630:	b140041f 	cmn	x0, #0x1, lsl #12
  405634:	54fffbe9 	b.ls	4055b0 <__sigprocmask+0x50>  // b.plast
  405638:	90000421 	adrp	x1, 489000 <_nl_C_LC_IDENTIFICATION+0xa8>
  40563c:	f946e821 	ldr	x1, [x1, #3536]
  405640:	d53bd042 	mrs	x2, tpidr_el0
  405644:	4b0003e3 	neg	w3, w0
  405648:	12800000 	mov	w0, #0xffffffff            	// #-1
  40564c:	b8216843 	str	w3, [x2, x1]
  405650:	17ffffd8 	b	4055b0 <__sigprocmask+0x50>
  405654:	94006e57 	bl	420fb0 <__stack_chk_fail>
  405658:	d503201f 	nop
  40565c:	d503201f 	nop

0000000000405660 <msort_with_tmp.part.0>:
  405660:	a9b87bfd 	stp	x29, x30, [sp, #-128]!
  405664:	910003fd 	mov	x29, sp
  405668:	a90573fb 	stp	x27, x28, [sp, #80]
  40566c:	f940001b 	ldr	x27, [x0]
  405670:	a90153f3 	stp	x19, x20, [sp, #16]
  405674:	d341fc54 	lsr	x20, x2, #1
  405678:	a9025bf5 	stp	x21, x22, [sp, #32]
  40567c:	cb140053 	sub	x19, x2, x20
  405680:	aa0003f6 	mov	x22, x0
  405684:	a90363f7 	stp	x23, x24, [sp, #48]
  405688:	9b1b069b 	madd	x27, x20, x27, x1
  40568c:	a9046bf9 	stp	x25, x26, [sp, #64]
  405690:	aa0103fa 	mov	x26, x1
  405694:	f9003fe2 	str	x2, [sp, #120]
  405698:	f100069f 	cmp	x20, #0x1
  40569c:	54000060 	b.eq	4056a8 <msort_with_tmp.part.0+0x48>  // b.none
  4056a0:	aa1403e2 	mov	x2, x20
  4056a4:	97ffffef 	bl	405660 <msort_with_tmp.part.0>
  4056a8:	f100067f 	cmp	x19, #0x1
  4056ac:	54000829 	b.ls	4057b0 <msort_with_tmp.part.0+0x150>  // b.plast
  4056b0:	aa1603e0 	mov	x0, x22
  4056b4:	aa1303e2 	mov	x2, x19
  4056b8:	aa1b03e1 	mov	x1, x27
  4056bc:	97ffffe9 	bl	405660 <msort_with_tmp.part.0>
  4056c0:	a94002d5 	ldp	x21, x0, [x22]
  4056c4:	a94162d7 	ldp	x23, x24, [x22, #16]
  4056c8:	f94012dc 	ldr	x28, [x22, #32]
  4056cc:	f100081f 	cmp	x0, #0x2
  4056d0:	54000f40 	b.eq	4058b8 <msort_with_tmp.part.0+0x258>  // b.none
  4056d4:	54000488 	b.hi	405764 <msort_with_tmp.part.0+0x104>  // b.pmore
  4056d8:	b4000980 	cbz	x0, 405808 <msort_with_tmp.part.0+0x1a8>
  4056dc:	aa1a03f9 	mov	x25, x26
  4056e0:	14000007 	b	4056fc <msort_with_tmp.part.0+0x9c>
  4056e4:	f8408760 	ldr	x0, [x27], #8
  4056e8:	f8008780 	str	x0, [x28], #8
  4056ec:	d1000673 	sub	x19, x19, #0x1
  4056f0:	f100029f 	cmp	x20, #0x0
  4056f4:	fa401a64 	ccmp	x19, #0x0, #0x4, ne  // ne = any
  4056f8:	540001c0 	b.eq	405730 <msort_with_tmp.part.0+0xd0>  // b.none
  4056fc:	aa1803e2 	mov	x2, x24
  405700:	aa1b03e1 	mov	x1, x27
  405704:	aa1903e0 	mov	x0, x25
  405708:	d63f02e0 	blr	x23
  40570c:	7100001f 	cmp	w0, #0x0
  405710:	54fffeac 	b.gt	4056e4 <msort_with_tmp.part.0+0x84>
  405714:	f8408720 	ldr	x0, [x25], #8
  405718:	d1000694 	sub	x20, x20, #0x1
  40571c:	f8008780 	str	x0, [x28], #8
  405720:	f100029f 	cmp	x20, #0x0
  405724:	fa401a64 	ccmp	x19, #0x0, #0x4, ne  // ne = any
  405728:	54fffea1 	b.ne	4056fc <msort_with_tmp.part.0+0x9c>  // b.any
  40572c:	d503201f 	nop
  405730:	b5000534 	cbnz	x20, 4057d4 <msort_with_tmp.part.0+0x174>
  405734:	f9403fe0 	ldr	x0, [sp, #120]
  405738:	f94012c1 	ldr	x1, [x22, #32]
  40573c:	cb130002 	sub	x2, x0, x19
  405740:	aa1a03e0 	mov	x0, x26
  405744:	a94153f3 	ldp	x19, x20, [sp, #16]
  405748:	9b157c42 	mul	x2, x2, x21
  40574c:	a9425bf5 	ldp	x21, x22, [sp, #32]
  405750:	a94363f7 	ldp	x23, x24, [sp, #48]
  405754:	a9446bf9 	ldp	x25, x26, [sp, #64]
  405758:	a94573fb 	ldp	x27, x28, [sp, #80]
  40575c:	a8c87bfd 	ldp	x29, x30, [sp], #128
  405760:	17ffead4 	b	4002b0 <.plt+0x10>
  405764:	f1000c1f 	cmp	x0, #0x3
  405768:	54000741 	b.ne	405850 <msort_with_tmp.part.0+0x1f0>  // b.any
  40576c:	aa1a03f9 	mov	x25, x26
  405770:	14000007 	b	40578c <msort_with_tmp.part.0+0x12c>
  405774:	f8408760 	ldr	x0, [x27], #8
  405778:	d1000673 	sub	x19, x19, #0x1
  40577c:	f8008780 	str	x0, [x28], #8
  405780:	f100029f 	cmp	x20, #0x0
  405784:	fa401a64 	ccmp	x19, #0x0, #0x4, ne  // ne = any
  405788:	54fffd40 	b.eq	405730 <msort_with_tmp.part.0+0xd0>  // b.none
  40578c:	f9400320 	ldr	x0, [x25]
  405790:	aa1803e2 	mov	x2, x24
  405794:	f9400361 	ldr	x1, [x27]
  405798:	d63f02e0 	blr	x23
  40579c:	7100001f 	cmp	w0, #0x0
  4057a0:	54fffeac 	b.gt	405774 <msort_with_tmp.part.0+0x114>
  4057a4:	d1000694 	sub	x20, x20, #0x1
  4057a8:	f8408720 	ldr	x0, [x25], #8
  4057ac:	17fffff4 	b	40577c <msort_with_tmp.part.0+0x11c>
  4057b0:	a94002d5 	ldp	x21, x0, [x22]
  4057b4:	a94162d7 	ldp	x23, x24, [x22, #16]
  4057b8:	f94012dc 	ldr	x28, [x22, #32]
  4057bc:	f100081f 	cmp	x0, #0x2
  4057c0:	540007a0 	b.eq	4058b4 <msort_with_tmp.part.0+0x254>  // b.none
  4057c4:	54000128 	b.hi	4057e8 <msort_with_tmp.part.0+0x188>  // b.pmore
  4057c8:	b40001a0 	cbz	x0, 4057fc <msort_with_tmp.part.0+0x19c>
  4057cc:	b5fff893 	cbnz	x19, 4056dc <msort_with_tmp.part.0+0x7c>
  4057d0:	aa1a03f9 	mov	x25, x26
  4057d4:	9b147ea2 	mul	x2, x21, x20
  4057d8:	aa1903e1 	mov	x1, x25
  4057dc:	aa1c03e0 	mov	x0, x28
  4057e0:	97ffeab4 	bl	4002b0 <.plt+0x10>
  4057e4:	17ffffd4 	b	405734 <msort_with_tmp.part.0+0xd4>
  4057e8:	f1000c1f 	cmp	x0, #0x3
  4057ec:	54000301 	b.ne	40584c <msort_with_tmp.part.0+0x1ec>  // b.any
  4057f0:	b4ffff13 	cbz	x19, 4057d0 <msort_with_tmp.part.0+0x170>
  4057f4:	d2800033 	mov	x19, #0x1                   	// #1
  4057f8:	17ffffdd 	b	40576c <msort_with_tmp.part.0+0x10c>
  4057fc:	b4fffeb3 	cbz	x19, 4057d0 <msort_with_tmp.part.0+0x170>
  405800:	d2800033 	mov	x19, #0x1                   	// #1
  405804:	d503201f 	nop
  405808:	aa1a03f9 	mov	x25, x26
  40580c:	14000007 	b	405828 <msort_with_tmp.part.0+0x1c8>
  405810:	b8404760 	ldr	w0, [x27], #4
  405814:	d1000673 	sub	x19, x19, #0x1
  405818:	b8004780 	str	w0, [x28], #4
  40581c:	f100029f 	cmp	x20, #0x0
  405820:	fa401a64 	ccmp	x19, #0x0, #0x4, ne  // ne = any
  405824:	54fff860 	b.eq	405730 <msort_with_tmp.part.0+0xd0>  // b.none
  405828:	aa1803e2 	mov	x2, x24
  40582c:	aa1b03e1 	mov	x1, x27
  405830:	aa1903e0 	mov	x0, x25
  405834:	d63f02e0 	blr	x23
  405838:	7100001f 	cmp	w0, #0x0
  40583c:	54fffeac 	b.gt	405810 <msort_with_tmp.part.0+0x1b0>
  405840:	b8404720 	ldr	w0, [x25], #4
  405844:	d1000694 	sub	x20, x20, #0x1
  405848:	17fffff4 	b	405818 <msort_with_tmp.part.0+0x1b8>
  40584c:	b4fffc33 	cbz	x19, 4057d0 <msort_with_tmp.part.0+0x170>
  405850:	aa1a03f9 	mov	x25, x26
  405854:	14000008 	b	405874 <msort_with_tmp.part.0+0x214>
  405858:	97ffea96 	bl	4002b0 <.plt+0x10>
  40585c:	8b15037b 	add	x27, x27, x21
  405860:	d1000673 	sub	x19, x19, #0x1
  405864:	8b15001c 	add	x28, x0, x21
  405868:	f100029f 	cmp	x20, #0x0
  40586c:	fa401a64 	ccmp	x19, #0x0, #0x4, ne  // ne = any
  405870:	54fff600 	b.eq	405730 <msort_with_tmp.part.0+0xd0>  // b.none
  405874:	aa1803e2 	mov	x2, x24
  405878:	aa1b03e1 	mov	x1, x27
  40587c:	aa1903e0 	mov	x0, x25
  405880:	d63f02e0 	blr	x23
  405884:	2a0003e3 	mov	w3, w0
  405888:	aa1b03e1 	mov	x1, x27
  40588c:	aa1c03e0 	mov	x0, x28
  405890:	aa1503e2 	mov	x2, x21
  405894:	7100007f 	cmp	w3, #0x0
  405898:	54fffe0c 	b.gt	405858 <msort_with_tmp.part.0+0x1f8>
  40589c:	aa1903e1 	mov	x1, x25
  4058a0:	d1000694 	sub	x20, x20, #0x1
  4058a4:	97ffea83 	bl	4002b0 <.plt+0x10>
  4058a8:	8b150339 	add	x25, x25, x21
  4058ac:	8b15001c 	add	x28, x0, x21
  4058b0:	17ffffee 	b	405868 <msort_with_tmp.part.0+0x208>
  4058b4:	b4fff8f3 	cbz	x19, 4057d0 <msort_with_tmp.part.0+0x170>
  4058b8:	d10006a7 	sub	x7, x21, #0x1
  4058bc:	aa1c03e8 	mov	x8, x28
  4058c0:	aa1a03f9 	mov	x25, x26
  4058c4:	d343fce7 	lsr	x7, x7, #3
  4058c8:	aa0803e6 	mov	x6, x8
  4058cc:	8b150108 	add	x8, x8, x21
  4058d0:	a9061be8 	stp	x8, x6, [sp, #96]
  4058d4:	aa1803e2 	mov	x2, x24
  4058d8:	aa1b03e1 	mov	x1, x27
  4058dc:	f9003be7 	str	x7, [sp, #112]
  4058e0:	aa1903e0 	mov	x0, x25
  4058e4:	d63f02e0 	blr	x23
  4058e8:	7100001f 	cmp	w0, #0x0
  4058ec:	a9461be8 	ldp	x8, x6, [sp, #96]
  4058f0:	f9403be7 	ldr	x7, [sp, #112]
  4058f4:	aa0803fc 	mov	x28, x8
  4058f8:	5400022d 	b.le	40593c <msort_with_tmp.part.0+0x2dc>
  4058fc:	aa1b03e0 	mov	x0, x27
  405900:	d1000673 	sub	x19, x19, #0x1
  405904:	8b15037b 	add	x27, x27, x21
  405908:	d2800003 	mov	x3, #0x0                   	// #0
  40590c:	eb06011f 	cmp	x8, x6
  405910:	540000e9 	b.ls	40592c <msort_with_tmp.part.0+0x2cc>  // b.plast
  405914:	d503201f 	nop
  405918:	f8637801 	ldr	x1, [x0, x3, lsl #3]
  40591c:	f82378c1 	str	x1, [x6, x3, lsl #3]
  405920:	eb0300ff 	cmp	x7, x3
  405924:	91000463 	add	x3, x3, #0x1
  405928:	54ffff81 	b.ne	405918 <msort_with_tmp.part.0+0x2b8>  // b.any
  40592c:	f100029f 	cmp	x20, #0x0
  405930:	fa401a64 	ccmp	x19, #0x0, #0x4, ne  // ne = any
  405934:	54fffca1 	b.ne	4058c8 <msort_with_tmp.part.0+0x268>  // b.any
  405938:	17ffff7e 	b	405730 <msort_with_tmp.part.0+0xd0>
  40593c:	aa1903e0 	mov	x0, x25
  405940:	d1000694 	sub	x20, x20, #0x1
  405944:	8b150339 	add	x25, x25, x21
  405948:	17fffff0 	b	405908 <msort_with_tmp.part.0+0x2a8>
  40594c:	d503201f 	nop

0000000000405950 <__qsort_r>:
  405950:	a9b67bfd 	stp	x29, x30, [sp, #-160]!
  405954:	f100805f 	cmp	x2, #0x20
  405958:	910003fd 	mov	x29, sp
  40595c:	a90363f7 	stp	x23, x24, [sp, #48]
  405960:	aa0103f7 	mov	x23, x1
  405964:	aa0303f8 	mov	x24, x3
  405968:	a9046bf9 	stp	x25, x26, [sp, #64]
  40596c:	90000439 	adrp	x25, 489000 <_nl_C_LC_IDENTIFICATION+0xa8>
  405970:	a90153f3 	stp	x19, x20, [sp, #16]
  405974:	8b011053 	add	x19, x2, x1, lsl #4
  405978:	f945df21 	ldr	x1, [x25, #3000]
  40597c:	a9025bf5 	stp	x21, x22, [sp, #32]
  405980:	aa0003f6 	mov	x22, x0
  405984:	a90573fb 	stp	x27, x28, [sp, #80]
  405988:	aa0203fb 	mov	x27, x2
  40598c:	9b027ee2 	mul	x2, x23, x2
  405990:	aa0403f5 	mov	x21, x4
  405994:	9a828273 	csel	x19, x19, x2, hi  // hi = pmore
  405998:	f9400022 	ldr	x2, [x1]
  40599c:	f9004fa2 	str	x2, [x29, #152]
  4059a0:	d2800002 	mov	x2, #0x0                   	// #0
  4059a4:	f10ffe7f 	cmp	x19, #0x3ff
  4059a8:	540004a8 	b.hi	405a3c <__qsort_r+0xec>  // b.pmore
  4059ac:	91003e73 	add	x19, x19, #0xf
  4059b0:	f90037bf 	str	xzr, [x29, #104]
  4059b4:	927cee73 	and	x19, x19, #0xfffffffffffffff0
  4059b8:	a90857b8 	stp	x24, x21, [x29, #128]
  4059bc:	cb3363ff 	sub	sp, sp, x19
  4059c0:	910003e0 	mov	x0, sp
  4059c4:	f9004ba0 	str	x0, [x29, #144]
  4059c8:	d2800080 	mov	x0, #0x4                   	// #4
  4059cc:	a90703bb 	stp	x27, x0, [x29, #112]
  4059d0:	f100837f 	cmp	x27, #0x20
  4059d4:	54000668 	b.hi	405aa0 <__qsort_r+0x150>  // b.pmore
  4059d8:	aa1b02c0 	orr	x0, x22, x27
  4059dc:	f240041f 	tst	x0, #0x3
  4059e0:	54001100 	b.eq	405c00 <__qsort_r+0x2b0>  // b.none
  4059e4:	f10006ff 	cmp	x23, #0x1
  4059e8:	540000a9 	b.ls	4059fc <__qsort_r+0xac>  // b.plast
  4059ec:	aa1703e2 	mov	x2, x23
  4059f0:	aa1603e1 	mov	x1, x22
  4059f4:	9101c3a0 	add	x0, x29, #0x70
  4059f8:	97ffff1a 	bl	405660 <msort_with_tmp.part.0>
  4059fc:	f94037a0 	ldr	x0, [x29, #104]
  405a00:	94004c94 	bl	418c50 <__free>
  405a04:	f945df39 	ldr	x25, [x25, #3000]
  405a08:	f9404fa0 	ldr	x0, [x29, #152]
  405a0c:	f9400321 	ldr	x1, [x25]
  405a10:	eb010000 	subs	x0, x0, x1
  405a14:	d2800001 	mov	x1, #0x0                   	// #0
  405a18:	54001141 	b.ne	405c40 <__qsort_r+0x2f0>  // b.any
  405a1c:	910003bf 	mov	sp, x29
  405a20:	a94153f3 	ldp	x19, x20, [sp, #16]
  405a24:	a9425bf5 	ldp	x21, x22, [sp, #32]
  405a28:	a94363f7 	ldp	x23, x24, [sp, #48]
  405a2c:	a9446bf9 	ldp	x25, x26, [sp, #64]
  405a30:	a94573fb 	ldp	x27, x28, [sp, #80]
  405a34:	a8ca7bfd 	ldp	x29, x30, [sp], #160
  405a38:	d65f03c0 	ret
  405a3c:	f0000434 	adrp	x20, 48c000 <object.0+0x28>
  405a40:	b949c280 	ldr	w0, [x20, #2496]
  405a44:	34000ae0 	cbz	w0, 405ba0 <__qsort_r+0x250>
  405a48:	93407c00 	sxtw	x0, w0
  405a4c:	91270294 	add	x20, x20, #0x9c0
  405a50:	9ac00a60 	udiv	x0, x19, x0
  405a54:	f9400681 	ldr	x1, [x20, #8]
  405a58:	eb01001f 	cmp	x0, x1
  405a5c:	54000948 	b.hi	405b84 <__qsort_r+0x234>  // b.pmore
  405a60:	90000421 	adrp	x1, 489000 <_nl_C_LC_IDENTIFICATION+0xa8>
  405a64:	f946e821 	ldr	x1, [x1, #3536]
  405a68:	d53bd054 	mrs	x20, tpidr_el0
  405a6c:	aa1303e0 	mov	x0, x19
  405a70:	aa0103f3 	mov	x19, x1
  405a74:	b8616a9a 	ldr	w26, [x20, x1]
  405a78:	94004b06 	bl	418690 <__libc_malloc>
  405a7c:	b8336a9a 	str	w26, [x20, x19]
  405a80:	f90037a0 	str	x0, [x29, #104]
  405a84:	b4000800 	cbz	x0, 405b84 <__qsort_r+0x234>
  405a88:	a90857b8 	stp	x24, x21, [x29, #128]
  405a8c:	f9004ba0 	str	x0, [x29, #144]
  405a90:	d2800080 	mov	x0, #0x4                   	// #4
  405a94:	a90703bb 	stp	x27, x0, [x29, #112]
  405a98:	f100837f 	cmp	x27, #0x20
  405a9c:	54fff9e9 	b.ls	4059d8 <__qsort_r+0x88>  // b.plast
  405aa0:	f9404bbc 	ldr	x28, [x29, #144]
  405aa4:	d37df2e2 	lsl	x2, x23, #3
  405aa8:	8b02039c 	add	x28, x28, x2
  405aac:	8b020398 	add	x24, x28, x2
  405ab0:	aa1c03e1 	mov	x1, x28
  405ab4:	eb18039f 	cmp	x28, x24
  405ab8:	54000102 	b.cs	405ad8 <__qsort_r+0x188>  // b.hs, b.nlast
  405abc:	aa1603e0 	mov	x0, x22
  405ac0:	f8008420 	str	x0, [x1], #8
  405ac4:	8b1b0000 	add	x0, x0, x27
  405ac8:	eb01031f 	cmp	x24, x1
  405acc:	54ffffa8 	b.hi	405ac0 <__qsort_r+0x170>  // b.pmore
  405ad0:	f9404ba1 	ldr	x1, [x29, #144]
  405ad4:	8b020021 	add	x1, x1, x2
  405ad8:	d2800102 	mov	x2, #0x8                   	// #8
  405adc:	d2800060 	mov	x0, #0x3                   	// #3
  405ae0:	a90703a2 	stp	x2, x0, [x29, #112]
  405ae4:	f10006ff 	cmp	x23, #0x1
  405ae8:	54000889 	b.ls	405bf8 <__qsort_r+0x2a8>  // b.plast
  405aec:	aa1703e2 	mov	x2, x23
  405af0:	9101c3a0 	add	x0, x29, #0x70
  405af4:	97fffedb 	bl	405660 <msort_with_tmp.part.0>
  405af8:	aa1603fa 	mov	x26, x22
  405afc:	d2800015 	mov	x21, #0x0                   	// #0
  405b00:	14000005 	b	405b14 <__qsort_r+0x1c4>
  405b04:	910006b5 	add	x21, x21, #0x1
  405b08:	8b1b035a 	add	x26, x26, x27
  405b0c:	eb1502ff 	cmp	x23, x21
  405b10:	54fff769 	b.ls	4059fc <__qsort_r+0xac>  // b.plast
  405b14:	f8757b93 	ldr	x19, [x28, x21, lsl #3]
  405b18:	eb1a027f 	cmp	x19, x26
  405b1c:	54ffff40 	b.eq	405b04 <__qsort_r+0x1b4>  // b.none
  405b20:	aa1b03e2 	mov	x2, x27
  405b24:	aa1a03e1 	mov	x1, x26
  405b28:	aa1803e0 	mov	x0, x24
  405b2c:	97ffe9e1 	bl	4002b0 <.plt+0x10>
  405b30:	aa1503f4 	mov	x20, x21
  405b34:	aa1a03e0 	mov	x0, x26
  405b38:	14000002 	b	405b40 <__qsort_r+0x1f0>
  405b3c:	aa0103f3 	mov	x19, x1
  405b40:	cb160263 	sub	x3, x19, x22
  405b44:	aa1403e5 	mov	x5, x20
  405b48:	aa1b03e2 	mov	x2, x27
  405b4c:	aa1303e1 	mov	x1, x19
  405b50:	9adb0874 	udiv	x20, x3, x27
  405b54:	f8257b80 	str	x0, [x28, x5, lsl #3]
  405b58:	97ffe9d6 	bl	4002b0 <.plt+0x10>
  405b5c:	aa1303e0 	mov	x0, x19
  405b60:	f8747b81 	ldr	x1, [x28, x20, lsl #3]
  405b64:	8b140f82 	add	x2, x28, x20, lsl #3
  405b68:	eb1a003f 	cmp	x1, x26
  405b6c:	54fffe81 	b.ne	405b3c <__qsort_r+0x1ec>  // b.any
  405b70:	f9000053 	str	x19, [x2]
  405b74:	aa1803e1 	mov	x1, x24
  405b78:	aa1b03e2 	mov	x2, x27
