	.file	"cfuntions.c"
	.text
	.globl	circumf
	.type	circumf, @function
circumf:
.LFB0:
	.cfi_startproc
	pushl	%ebp
	.cfi_def_cfa_offset 8
	.cfi_offset 5, -8
	movl	%esp, %ebp
	.cfi_def_cfa_register 5
	subl	$8, %esp
	call	__x86.get_pc_thunk.ax
	addl	$_GLOBAL_OFFSET_TABLE_, %eax
	movl	8(%ebp), %edx
	addl	%edx, %edx
	movl	%edx, -4(%ebp)
	fildl	-4(%ebp)
	fldl	.LC0@GOTOFF(%eax)
	fmulp	%st, %st(1)
	fstps	-4(%ebp)
	flds	-4(%ebp)
	leave
	.cfi_restore 5
	.cfi_def_cfa 4, 4
	ret
	.cfi_endproc
.LFE0:
	.size	circumf, .-circumf
	.globl	area
	.type	area, @function
area:
.LFB1:
	.cfi_startproc
	pushl	%ebp
	.cfi_def_cfa_offset 8
	.cfi_offset 5, -8
	movl	%esp, %ebp
	.cfi_def_cfa_register 5
	subl	$8, %esp
	call	__x86.get_pc_thunk.dx
	addl	$_GLOBAL_OFFSET_TABLE_, %edx
	movl	8(%ebp), %eax
	imull	%eax, %eax
	movl	%eax, -4(%ebp)
	fildl	-4(%ebp)
	fldl	.LC0@GOTOFF(%edx)
	fmulp	%st, %st(1)
	fstps	-4(%ebp)
	flds	-4(%ebp)
	leave
	.cfi_restore 5
	.cfi_def_cfa 4, 4
	ret
	.cfi_endproc
.LFE1:
	.size	area, .-area
	.section	.rodata
.LC1:
	.string	"Radius: %d\n"
.LC2:
	.string	"Circumference: %f\n"
.LC3:
	.string	"Area: %f\n"
	.text
	.globl	main
	.type	main, @function
main:
.LFB2:
	.cfi_startproc
	leal	4(%esp), %ecx
	.cfi_def_cfa 1, 0
	andl	$-16, %esp
	pushl	-4(%ecx)
	pushl	%ebp
	.cfi_escape 0x10,0x5,0x2,0x75,0
	movl	%esp, %ebp
	pushl	%ebx
	pushl	%ecx
	.cfi_escape 0xf,0x3,0x75,0x78,0x6
	.cfi_escape 0x10,0x3,0x2,0x75,0x7c
	subl	$16, %esp
	call	__x86.get_pc_thunk.bx
	addl	$_GLOBAL_OFFSET_TABLE_, %ebx
	movl	$10, -12(%ebp)
	subl	$8, %esp
	pushl	-12(%ebp)
	leal	.LC1@GOTOFF(%ebx), %eax
	pushl	%eax
	call	printf@PLT
	addl	$16, %esp
	subl	$12, %esp
	pushl	-12(%ebp)
	call	circumf
	addl	$16, %esp
	subl	$4, %esp
	leal	-8(%esp), %esp
	fstpl	(%esp)
	leal	.LC2@GOTOFF(%ebx), %eax
	pushl	%eax
	call	printf@PLT
	addl	$16, %esp
	subl	$12, %esp
	pushl	-12(%ebp)
	call	area
	addl	$16, %esp
	subl	$4, %esp
	leal	-8(%esp), %esp
	fstpl	(%esp)
	leal	.LC3@GOTOFF(%ebx), %eax
	pushl	%eax
	call	printf@PLT
	addl	$16, %esp
	movl	$0, %eax
	leal	-8(%ebp), %esp
	popl	%ecx
	.cfi_restore 1
	.cfi_def_cfa 1, 0
	popl	%ebx
	.cfi_restore 3
	popl	%ebp
	.cfi_restore 5
	leal	-4(%ecx), %esp
	.cfi_def_cfa 4, 4
	ret
	.cfi_endproc
.LFE2:
	.size	main, .-main
	.section	.rodata
	.align 8
.LC0:
	.long	603906762
	.long	1074340307
	.section	.text.__x86.get_pc_thunk.ax,"axG",@progbits,__x86.get_pc_thunk.ax,comdat
	.globl	__x86.get_pc_thunk.ax
	.hidden	__x86.get_pc_thunk.ax
	.type	__x86.get_pc_thunk.ax, @function
__x86.get_pc_thunk.ax:
.LFB3:
	.cfi_startproc
	movl	(%esp), %eax
	ret
	.cfi_endproc
.LFE3:
	.section	.text.__x86.get_pc_thunk.dx,"axG",@progbits,__x86.get_pc_thunk.dx,comdat
	.globl	__x86.get_pc_thunk.dx
	.hidden	__x86.get_pc_thunk.dx
	.type	__x86.get_pc_thunk.dx, @function
__x86.get_pc_thunk.dx:
.LFB4:
	.cfi_startproc
	movl	(%esp), %edx
	ret
	.cfi_endproc
.LFE4:
	.section	.text.__x86.get_pc_thunk.bx,"axG",@progbits,__x86.get_pc_thunk.bx,comdat
	.globl	__x86.get_pc_thunk.bx
	.hidden	__x86.get_pc_thunk.bx
	.type	__x86.get_pc_thunk.bx, @function
__x86.get_pc_thunk.bx:
.LFB5:
	.cfi_startproc
	movl	(%esp), %ebx
	ret
	.cfi_endproc
.LFE5:
	.ident	"GCC: (Debian 9.3.0-14) 9.3.0"
	.section	.note.GNU-stack,"",@progbits
